ARM GAS  C:\Users\hasur\AppData\Local\Temp\cceDQduE.s 			page 1


   1              		.syntax unified
   2              		.cpu cortex-m0
   3              		.fpu softvfp
   4              		.eabi_attribute 20, 1
   5              		.eabi_attribute 21, 1
   6              		.eabi_attribute 23, 3
   7              		.eabi_attribute 24, 1
   8              		.eabi_attribute 25, 1
   9              		.eabi_attribute 26, 1
  10              		.eabi_attribute 30, 6
  11              		.eabi_attribute 34, 0
  12              		.eabi_attribute 18, 4
  13              		.thumb
  14              		.syntax unified
  15              		.file	"I2CMaster.c"
  16              		.text
  17              	.Ltext0:
  18              		.cfi_sections	.debug_frame
  19              		.comm	SensorCalibrationData,22,4
  20              		.comm	X1,4,4
  21              		.comm	X2,4,4
  22              		.comm	X3,4,4
  23              		.comm	B3,4,4
  24              		.comm	B5,4,4
  25              		.comm	B6,4,4
  26              		.comm	UT,4,4
  27              		.comm	UP,4,4
  28              		.comm	B4,4,4
  29              		.comm	B7,4,4
  30              		.comm	AC1,2,2
  31              		.comm	AC2,2,2
  32              		.comm	AC3,2,2
  33              		.comm	B1,2,2
  34              		.comm	B2,2,2
  35              		.comm	MC,2,2
  36              		.comm	MD,2,2
  37              		.comm	AC4,2,2
  38              		.comm	AC5,2,2
  39              		.comm	AC6,2,2
  40              		.comm	Temperature,4,4
  41              		.comm	Pressure,4,4
  42              		.comm	Altitude,4,4
  43              		.global	PressureAtSeaLevel
  44              		.data
  45              		.align	3
  46              		.type	PressureAtSeaLevel, %object
  47              		.size	PressureAtSeaLevel, 8
  48              	PressureAtSeaLevel:
  49 0000 00000000 		.word	0
  50 0004 D0BCF840 		.word	1090043088
  51              		.global	CalibrationDataAvailable
  52              		.bss
  53              		.type	CalibrationDataAvailable, %object
  54              		.size	CalibrationDataAvailable, 1
  55              	CalibrationDataAvailable:
  56 0000 00       		.space	1
  57              		.section	.text.ReadSensorCalibrationData,"ax",%progbits
ARM GAS  C:\Users\hasur\AppData\Local\Temp\cceDQduE.s 			page 2


  58              		.align	2
  59              		.global	ReadSensorCalibrationData
  60              		.code	16
  61              		.thumb_func
  62              		.type	ReadSensorCalibrationData, %function
  63              	ReadSensorCalibrationData:
  64              	.LFB35:
  65              		.file 1 "I2CMaster.c"
   1:I2CMaster.c   **** /**************************************************************************************************
   2:I2CMaster.c   **** * Project Name		: PSoC_4_BLE_Pressure_Sensor
   3:I2CMaster.c   **** * File Name			: I2CMaster.c
   4:I2CMaster.c   **** * Version 			: 1.0
   5:I2CMaster.c   **** * Device Used		: CY8C4247LQI-BL483
   6:I2CMaster.c   **** * Software Used		: PSoC Creator 3.1
   7:I2CMaster.c   **** * Compiler    		: ARM GCC 4.8.4
   8:I2CMaster.c   **** * Related Hardware	: CY8CKIT-042-BLE Bluetooth Low Energy Pioneer Kit
   9:I2CMaster.c   **** ***************************************************************************************************
  10:I2CMaster.c   **** 
  11:I2CMaster.c   **** /**************************************************************************************************
  12:I2CMaster.c   **** * Copyright (2015), Cypress Semiconductor Corporation. All Rights Reserved.
  13:I2CMaster.c   **** ***************************************************************************************************
  14:I2CMaster.c   **** * This software, including source code, documentation and related materials
  15:I2CMaster.c   **** * ("Software") is owned by Cypress Semiconductor Corporation (Cypress) and is
  16:I2CMaster.c   **** * protected by and subject to worldwide patent protection (United States and 
  17:I2CMaster.c   **** * foreign), United States copyright laws and international treaty provisions. 
  18:I2CMaster.c   **** * Cypress hereby grants to licensee a personal, non-exclusive, non-transferable
  19:I2CMaster.c   **** * license to copy, use, modify, create derivative works of, and compile the 
  20:I2CMaster.c   **** * Cypress source code and derivative works for the sole purpose of creating 
  21:I2CMaster.c   **** * custom software in support of licensee product, such licensee product to be
  22:I2CMaster.c   **** * used only in conjunction with Cypress's integrated circuit as specified in the
  23:I2CMaster.c   **** * applicable agreement. Any reproduction, modification, translation, compilation,
  24:I2CMaster.c   **** * or representation of this Software except as specified above is prohibited 
  25:I2CMaster.c   **** * without the express written permission of Cypress.
  26:I2CMaster.c   **** * 
  27:I2CMaster.c   **** * Disclaimer: THIS SOFTWARE IS PROVIDED AS-IS, WITH NO WARRANTY OF ANY KIND, 
  28:I2CMaster.c   **** * EXPRESS OR IMPLIED, INCLUDING, BUT NOT LIMITED TO, NONINFRINGEMENT, IMPLIED 
  29:I2CMaster.c   **** * WARRANTIES OF MERCHANTABILITY AND FITNESS FOR A PARTICULAR PURPOSE.
  30:I2CMaster.c   **** * Cypress reserves the right to make changes to the Software without notice. 
  31:I2CMaster.c   **** * Cypress does not assume any liability arising out of the application or use
  32:I2CMaster.c   **** * of Software or any product or circuit described in the Software. Cypress does
  33:I2CMaster.c   **** * not authorize its products for use as critical components in any products 
  34:I2CMaster.c   **** * where a malfunction or failure may reasonably be expected to result in 
  35:I2CMaster.c   **** * significant injury or death ("ACTIVE Risk Product"). By including Cypress's 
  36:I2CMaster.c   **** * product in a ACTIVE Risk Product, the manufacturer of such system or application
  37:I2CMaster.c   **** * assumes all risk of such use and in doing so indemnifies Cypress against all
  38:I2CMaster.c   **** * liability. Use of this Software may be limited by and subject to the applicable
  39:I2CMaster.c   **** * Cypress software license agreement.
  40:I2CMaster.c   **** ***************************************************************************************************
  41:I2CMaster.c   **** 
  42:I2CMaster.c   **** #include <I2CMaster.h>
  43:I2CMaster.c   **** 
  44:I2CMaster.c   **** /*************************Variables Declaration****************************************************
  45:I2CMaster.c   **** uint8 SensorCalibrationData[0x16]; //Calibration data is stored in this array
  46:I2CMaster.c   **** long X1, X2, X3, B3, B5, B6, UT, UP; //Variables to store calibration coefficients
  47:I2CMaster.c   **** unsigned long B4, B7; //Variables to store calibration coefficients
  48:I2CMaster.c   **** short AC1, AC2, AC3, B1, B2, MC, MD; //Variables to store calibration coefficients
  49:I2CMaster.c   **** unsigned short AC4, AC5, AC6; //Variables to store calibration coefficients
ARM GAS  C:\Users\hasur\AppData\Local\Temp\cceDQduE.s 			page 3


  50:I2CMaster.c   **** long UT, UP; //Variables to store uncompensated temperature and pressure data
  51:I2CMaster.c   **** long Temperature, Pressure, Altitude; //Variables to store the true temperature, pressure and altit
  52:I2CMaster.c   **** double PressureAtSeaLevel = 101325.0; //Pressure at sea level in Pascal
  53:I2CMaster.c   **** uint8 CalibrationDataAvailable = FALSE; //This flag is to whether the calibration data is available
  54:I2CMaster.c   **** /**************************************************************************************************
  55:I2CMaster.c   **** 
  56:I2CMaster.c   **** /**************************************************************************************************
  57:I2CMaster.c   **** * Function Name: ReadSensorCalibrationData
  58:I2CMaster.c   **** ***************************************************************************************************
  59:I2CMaster.c   **** * Summary: This function reads the sensor calibration data over I2C and
  60:I2CMaster.c   **** * assigns it to the appropriate sensor coefficient variables.
  61:I2CMaster.c   **** *
  62:I2CMaster.c   **** * Parameters:
  63:I2CMaster.c   **** *  void
  64:I2CMaster.c   **** *
  65:I2CMaster.c   **** * Return:
  66:I2CMaster.c   **** *  void
  67:I2CMaster.c   **** *
  68:I2CMaster.c   **** ***************************************************************************************************
  69:I2CMaster.c   **** void ReadSensorCalibrationData(void)
  70:I2CMaster.c   **** {
  66              		.loc 1 70 0
  67              		.cfi_startproc
  68              		@ args = 0, pretend = 0, frame = 0
  69              		@ frame_needed = 1, uses_anonymous_args = 0
  70 0000 80B5     		push	{r7, lr}
  71              		.cfi_def_cfa_offset 8
  72              		.cfi_offset 7, -8
  73              		.cfi_offset 14, -4
  74 0002 00AF     		add	r7, sp, #0
  75              		.cfi_def_cfa_register 7
  71:I2CMaster.c   ****     static uint8 I2CWriteBuffer[0x01] = {0xAA}; //Location from which the calibration data is to be
  72:I2CMaster.c   ****     
  73:I2CMaster.c   ****     /* Do a write operation with the memory address bytes to get calibration data */
  74:I2CMaster.c   **** 	I2C_I2CMasterWriteBuf(I2CSlaveAddress, (uint8 *) I2CWriteBuffer, sizeof(I2CWriteBuffer), I2C_I2C_M
  76              		.loc 1 74 0
  77 0004 4A49     		ldr	r1, .L4
  78 0006 0023     		movs	r3, #0
  79 0008 0122     		movs	r2, #1
  80 000a 7720     		movs	r0, #119
  81 000c FFF7FEFF 		bl	I2C_I2CMasterWriteBuf
  75:I2CMaster.c   ****     while(!(I2C_I2CMasterStatus() & I2C_I2C_MSTAT_WR_CMPLT)); //Wait till the master completes writ
  82              		.loc 1 75 0
  83 0010 C046     		nop
  84              	.L2:
  85              		.loc 1 75 0 is_stmt 0 discriminator 1
  86 0012 FFF7FEFF 		bl	I2C_I2CMasterStatus
  87 0016 0200     		movs	r2, r0
  88 0018 0223     		movs	r3, #2
  89 001a 1340     		ands	r3, r2
  90 001c F9D0     		beq	.L2
  76:I2CMaster.c   ****     I2C_I2CMasterClearStatus(); //Clear I2C master status
  91              		.loc 1 76 0 is_stmt 1
  92 001e FFF7FEFF 		bl	I2C_I2CMasterClearStatus
  77:I2CMaster.c   ****     
  78:I2CMaster.c   ****     /* Read calibration from the sensor EEPROM and store it in a buffer */
  79:I2CMaster.c   **** 	I2C_I2CMasterReadBuf(I2CSlaveAddress, (uint8 *) SensorCalibrationData, sizeof(SensorCalibrationDat
ARM GAS  C:\Users\hasur\AppData\Local\Temp\cceDQduE.s 			page 4


  93              		.loc 1 79 0
  94 0022 4449     		ldr	r1, .L4+4
  95 0024 0023     		movs	r3, #0
  96 0026 1622     		movs	r2, #22
  97 0028 7720     		movs	r0, #119
  98 002a FFF7FEFF 		bl	I2C_I2CMasterReadBuf
  80:I2CMaster.c   ****     while(!(I2C_I2CMasterStatus() & I2C_I2C_MSTAT_RD_CMPLT)); //Wait till the master completes read
  99              		.loc 1 80 0
 100 002e C046     		nop
 101              	.L3:
 102              		.loc 1 80 0 is_stmt 0 discriminator 1
 103 0030 FFF7FEFF 		bl	I2C_I2CMasterStatus
 104 0034 0200     		movs	r2, r0
 105 0036 0123     		movs	r3, #1
 106 0038 1340     		ands	r3, r2
 107 003a F9D0     		beq	.L3
  81:I2CMaster.c   ****     I2C_I2CMasterClearStatus(); //Clear I2C master status
 108              		.loc 1 81 0 is_stmt 1
 109 003c FFF7FEFF 		bl	I2C_I2CMasterClearStatus
  82:I2CMaster.c   ****     
  83:I2CMaster.c   ****     CalibrationDataAvailable = TRUE; //Set sensor calibration data available flag
 110              		.loc 1 83 0
 111 0040 3D4B     		ldr	r3, .L4+8
 112 0042 0122     		movs	r2, #1
 113 0044 1A70     		strb	r2, [r3]
  84:I2CMaster.c   ****     
  85:I2CMaster.c   ****     /* Assign calibration data to coefficient variables as described in sensor datasheet */
  86:I2CMaster.c   ****     AC1 = (SensorCalibrationData[0x00] << 0x08) | SensorCalibrationData[0x01];
 114              		.loc 1 86 0
 115 0046 3B4B     		ldr	r3, .L4+4
 116 0048 1B78     		ldrb	r3, [r3]
 117 004a 1B02     		lsls	r3, r3, #8
 118 004c 1AB2     		sxth	r2, r3
 119 004e 394B     		ldr	r3, .L4+4
 120 0050 5B78     		ldrb	r3, [r3, #1]
 121 0052 1BB2     		sxth	r3, r3
 122 0054 1343     		orrs	r3, r2
 123 0056 1AB2     		sxth	r2, r3
 124 0058 384B     		ldr	r3, .L4+12
 125 005a 1A80     		strh	r2, [r3]
  87:I2CMaster.c   ****     AC2 = (SensorCalibrationData[0x02] << 0x08) | SensorCalibrationData[0x03];
 126              		.loc 1 87 0
 127 005c 354B     		ldr	r3, .L4+4
 128 005e 9B78     		ldrb	r3, [r3, #2]
 129 0060 1B02     		lsls	r3, r3, #8
 130 0062 1AB2     		sxth	r2, r3
 131 0064 334B     		ldr	r3, .L4+4
 132 0066 DB78     		ldrb	r3, [r3, #3]
 133 0068 1BB2     		sxth	r3, r3
 134 006a 1343     		orrs	r3, r2
 135 006c 1AB2     		sxth	r2, r3
 136 006e 344B     		ldr	r3, .L4+16
 137 0070 1A80     		strh	r2, [r3]
  88:I2CMaster.c   ****     AC3 = (SensorCalibrationData[0x04] << 0x08) | SensorCalibrationData[0x05];
 138              		.loc 1 88 0
 139 0072 304B     		ldr	r3, .L4+4
 140 0074 1B79     		ldrb	r3, [r3, #4]
ARM GAS  C:\Users\hasur\AppData\Local\Temp\cceDQduE.s 			page 5


 141 0076 1B02     		lsls	r3, r3, #8
 142 0078 1AB2     		sxth	r2, r3
 143 007a 2E4B     		ldr	r3, .L4+4
 144 007c 5B79     		ldrb	r3, [r3, #5]
 145 007e 1BB2     		sxth	r3, r3
 146 0080 1343     		orrs	r3, r2
 147 0082 1AB2     		sxth	r2, r3
 148 0084 2F4B     		ldr	r3, .L4+20
 149 0086 1A80     		strh	r2, [r3]
  89:I2CMaster.c   ****     AC4 = (SensorCalibrationData[0x06] << 0x08) | SensorCalibrationData[0x07];
 150              		.loc 1 89 0
 151 0088 2A4B     		ldr	r3, .L4+4
 152 008a 9B79     		ldrb	r3, [r3, #6]
 153 008c 1B02     		lsls	r3, r3, #8
 154 008e 1AB2     		sxth	r2, r3
 155 0090 284B     		ldr	r3, .L4+4
 156 0092 DB79     		ldrb	r3, [r3, #7]
 157 0094 1BB2     		sxth	r3, r3
 158 0096 1343     		orrs	r3, r2
 159 0098 1BB2     		sxth	r3, r3
 160 009a 9AB2     		uxth	r2, r3
 161 009c 2A4B     		ldr	r3, .L4+24
 162 009e 1A80     		strh	r2, [r3]
  90:I2CMaster.c   ****     AC5 = (SensorCalibrationData[0x08] << 0x08) | SensorCalibrationData[0x09];
 163              		.loc 1 90 0
 164 00a0 244B     		ldr	r3, .L4+4
 165 00a2 1B7A     		ldrb	r3, [r3, #8]
 166 00a4 1B02     		lsls	r3, r3, #8
 167 00a6 1AB2     		sxth	r2, r3
 168 00a8 224B     		ldr	r3, .L4+4
 169 00aa 5B7A     		ldrb	r3, [r3, #9]
 170 00ac 1BB2     		sxth	r3, r3
 171 00ae 1343     		orrs	r3, r2
 172 00b0 1BB2     		sxth	r3, r3
 173 00b2 9AB2     		uxth	r2, r3
 174 00b4 254B     		ldr	r3, .L4+28
 175 00b6 1A80     		strh	r2, [r3]
  91:I2CMaster.c   ****     AC6 = (SensorCalibrationData[0x0A] << 0x08) | SensorCalibrationData[0x0B];
 176              		.loc 1 91 0
 177 00b8 1E4B     		ldr	r3, .L4+4
 178 00ba 9B7A     		ldrb	r3, [r3, #10]
 179 00bc 1B02     		lsls	r3, r3, #8
 180 00be 1AB2     		sxth	r2, r3
 181 00c0 1C4B     		ldr	r3, .L4+4
 182 00c2 DB7A     		ldrb	r3, [r3, #11]
 183 00c4 1BB2     		sxth	r3, r3
 184 00c6 1343     		orrs	r3, r2
 185 00c8 1BB2     		sxth	r3, r3
 186 00ca 9AB2     		uxth	r2, r3
 187 00cc 204B     		ldr	r3, .L4+32
 188 00ce 1A80     		strh	r2, [r3]
  92:I2CMaster.c   ****     B1 = (SensorCalibrationData[0x0C] << 0x08) | SensorCalibrationData[0x0D];
 189              		.loc 1 92 0
 190 00d0 184B     		ldr	r3, .L4+4
 191 00d2 1B7B     		ldrb	r3, [r3, #12]
 192 00d4 1B02     		lsls	r3, r3, #8
 193 00d6 1AB2     		sxth	r2, r3
ARM GAS  C:\Users\hasur\AppData\Local\Temp\cceDQduE.s 			page 6


 194 00d8 164B     		ldr	r3, .L4+4
 195 00da 5B7B     		ldrb	r3, [r3, #13]
 196 00dc 1BB2     		sxth	r3, r3
 197 00de 1343     		orrs	r3, r2
 198 00e0 1AB2     		sxth	r2, r3
 199 00e2 1C4B     		ldr	r3, .L4+36
 200 00e4 1A80     		strh	r2, [r3]
  93:I2CMaster.c   ****     B2 = (SensorCalibrationData[0x0E] << 0x08) | SensorCalibrationData[0x0F];
 201              		.loc 1 93 0
 202 00e6 134B     		ldr	r3, .L4+4
 203 00e8 9B7B     		ldrb	r3, [r3, #14]
 204 00ea 1B02     		lsls	r3, r3, #8
 205 00ec 1AB2     		sxth	r2, r3
 206 00ee 114B     		ldr	r3, .L4+4
 207 00f0 DB7B     		ldrb	r3, [r3, #15]
 208 00f2 1BB2     		sxth	r3, r3
 209 00f4 1343     		orrs	r3, r2
 210 00f6 1AB2     		sxth	r2, r3
 211 00f8 174B     		ldr	r3, .L4+40
 212 00fa 1A80     		strh	r2, [r3]
  94:I2CMaster.c   ****     MC = (SensorCalibrationData[0x012] << 0x08) | SensorCalibrationData[0x013];
 213              		.loc 1 94 0
 214 00fc 0D4B     		ldr	r3, .L4+4
 215 00fe 9B7C     		ldrb	r3, [r3, #18]
 216 0100 1B02     		lsls	r3, r3, #8
 217 0102 1AB2     		sxth	r2, r3
 218 0104 0B4B     		ldr	r3, .L4+4
 219 0106 DB7C     		ldrb	r3, [r3, #19]
 220 0108 1BB2     		sxth	r3, r3
 221 010a 1343     		orrs	r3, r2
 222 010c 1AB2     		sxth	r2, r3
 223 010e 134B     		ldr	r3, .L4+44
 224 0110 1A80     		strh	r2, [r3]
  95:I2CMaster.c   ****     MD = (SensorCalibrationData[0x014] << 0x08) | SensorCalibrationData[0x015];
 225              		.loc 1 95 0
 226 0112 084B     		ldr	r3, .L4+4
 227 0114 1B7D     		ldrb	r3, [r3, #20]
 228 0116 1B02     		lsls	r3, r3, #8
 229 0118 1AB2     		sxth	r2, r3
 230 011a 064B     		ldr	r3, .L4+4
 231 011c 5B7D     		ldrb	r3, [r3, #21]
 232 011e 1BB2     		sxth	r3, r3
 233 0120 1343     		orrs	r3, r2
 234 0122 1AB2     		sxth	r2, r3
 235 0124 0E4B     		ldr	r3, .L4+48
 236 0126 1A80     		strh	r2, [r3]
  96:I2CMaster.c   **** }
 237              		.loc 1 96 0
 238 0128 C046     		nop
 239 012a BD46     		mov	sp, r7
 240              		@ sp needed
 241 012c 80BD     		pop	{r7, pc}
 242              	.L5:
 243 012e C046     		.align	2
 244              	.L4:
 245 0130 08000000 		.word	I2CWriteBuffer.7778
 246 0134 00000000 		.word	SensorCalibrationData
ARM GAS  C:\Users\hasur\AppData\Local\Temp\cceDQduE.s 			page 7


 247 0138 00000000 		.word	CalibrationDataAvailable
 248 013c 00000000 		.word	AC1
 249 0140 00000000 		.word	AC2
 250 0144 00000000 		.word	AC3
 251 0148 00000000 		.word	AC4
 252 014c 00000000 		.word	AC5
 253 0150 00000000 		.word	AC6
 254 0154 00000000 		.word	B1
 255 0158 00000000 		.word	B2
 256 015c 00000000 		.word	MC
 257 0160 00000000 		.word	MD
 258              		.cfi_endproc
 259              	.LFE35:
 260              		.size	ReadSensorCalibrationData, .-ReadSensorCalibrationData
 261              		.section	.text.ReadUncompensatedTemperature,"ax",%progbits
 262              		.align	2
 263              		.global	ReadUncompensatedTemperature
 264              		.code	16
 265              		.thumb_func
 266              		.type	ReadUncompensatedTemperature, %function
 267              	ReadUncompensatedTemperature:
 268              	.LFB36:
  97:I2CMaster.c   **** /**************************************************************************************************
  98:I2CMaster.c   **** 
  99:I2CMaster.c   **** /**************************************************************************************************
 100:I2CMaster.c   **** * Function Name: ReadUncompensatedTemperature
 101:I2CMaster.c   **** ***************************************************************************************************
 102:I2CMaster.c   **** * Summary: This function writes the temperature conversion command to the sensor and
 103:I2CMaster.c   **** * waits for conversion to complete, and then reads the converted data (uncompensated temperature) a
 104:I2CMaster.c   **** *
 105:I2CMaster.c   **** * Parameters:
 106:I2CMaster.c   **** *  void
 107:I2CMaster.c   **** *
 108:I2CMaster.c   **** * Return:
 109:I2CMaster.c   **** *  void
 110:I2CMaster.c   **** *
 111:I2CMaster.c   **** ***************************************************************************************************
 112:I2CMaster.c   **** void ReadUncompensatedTemperature(void)
 113:I2CMaster.c   **** {
 269              		.loc 1 113 0
 270              		.cfi_startproc
 271              		@ args = 0, pretend = 0, frame = 0
 272              		@ frame_needed = 1, uses_anonymous_args = 0
 273 0000 80B5     		push	{r7, lr}
 274              		.cfi_def_cfa_offset 8
 275              		.cfi_offset 7, -8
 276              		.cfi_offset 14, -4
 277 0002 00AF     		add	r7, sp, #0
 278              		.cfi_def_cfa_register 7
 114:I2CMaster.c   ****     static uint8 I2CReadBuffer[0x02]; //The uncompensated temperature read from the sensor is store
 115:I2CMaster.c   ****     static uint8 I2CWriteBuffer[0x02] = {0xF4, 0x2E}; //Command for temperature conversion - Regist
 116:I2CMaster.c   ****     static uint8 SetReadAddressBuffer[0x01] = {0xF6}; //Register address from which the data is rea
 117:I2CMaster.c   ****     
 118:I2CMaster.c   ****     /* Do a write operation with the memory address bytes to get temperature data */
 119:I2CMaster.c   **** 	I2C_I2CMasterWriteBuf(I2CSlaveAddress, (uint8 *) I2CWriteBuffer, sizeof(I2CWriteBuffer), I2C_I2C_M
 279              		.loc 1 119 0
 280 0004 1D49     		ldr	r1, .L10
ARM GAS  C:\Users\hasur\AppData\Local\Temp\cceDQduE.s 			page 8


 281 0006 0023     		movs	r3, #0
 282 0008 0222     		movs	r2, #2
 283 000a 7720     		movs	r0, #119
 284 000c FFF7FEFF 		bl	I2C_I2CMasterWriteBuf
 120:I2CMaster.c   ****     while(!(I2C_I2CMasterStatus() & I2C_I2C_MSTAT_WR_CMPLT)); //Wait till the master completes writ
 285              		.loc 1 120 0
 286 0010 C046     		nop
 287              	.L7:
 288              		.loc 1 120 0 is_stmt 0 discriminator 1
 289 0012 FFF7FEFF 		bl	I2C_I2CMasterStatus
 290 0016 0200     		movs	r2, r0
 291 0018 0223     		movs	r3, #2
 292 001a 1340     		ands	r3, r2
 293 001c F9D0     		beq	.L7
 121:I2CMaster.c   ****     I2C_I2CMasterClearStatus(); //Clear I2C master status
 294              		.loc 1 121 0 is_stmt 1
 295 001e FFF7FEFF 		bl	I2C_I2CMasterClearStatus
 122:I2CMaster.c   ****     
 123:I2CMaster.c   ****     CyDelay(5); //Wait for 5ms temperature conversion
 296              		.loc 1 123 0
 297 0022 0520     		movs	r0, #5
 298 0024 FFF7FEFF 		bl	CyDelay
 124:I2CMaster.c   ****     
 125:I2CMaster.c   ****     /* In order to do a read from a specific address, do a write operation with the memory address 
 126:I2CMaster.c   **** 	I2C_I2CMasterWriteBuf(I2CSlaveAddress, (uint8 *) SetReadAddressBuffer, sizeof(SetReadAddressBuffer
 299              		.loc 1 126 0
 300 0028 1549     		ldr	r1, .L10+4
 301 002a 0023     		movs	r3, #0
 302 002c 0122     		movs	r2, #1
 303 002e 7720     		movs	r0, #119
 304 0030 FFF7FEFF 		bl	I2C_I2CMasterWriteBuf
 127:I2CMaster.c   ****     while(!(I2C_I2CMasterStatus() & I2C_I2C_MSTAT_WR_CMPLT)); //Wait till the master completes writ
 305              		.loc 1 127 0
 306 0034 C046     		nop
 307              	.L8:
 308              		.loc 1 127 0 is_stmt 0 discriminator 1
 309 0036 FFF7FEFF 		bl	I2C_I2CMasterStatus
 310 003a 0200     		movs	r2, r0
 311 003c 0223     		movs	r3, #2
 312 003e 1340     		ands	r3, r2
 313 0040 F9D0     		beq	.L8
 128:I2CMaster.c   ****     I2C_I2CMasterClearStatus(); //Clear I2C master status
 314              		.loc 1 128 0 is_stmt 1
 315 0042 FFF7FEFF 		bl	I2C_I2CMasterClearStatus
 129:I2CMaster.c   ****     
 130:I2CMaster.c   ****     /* Read temperature from the sensor and store it in a buffer */
 131:I2CMaster.c   **** 	I2C_I2CMasterReadBuf(I2CSlaveAddress, (uint8 *) I2CReadBuffer, sizeof(I2CReadBuffer), I2C_I2C_MODE
 316              		.loc 1 131 0
 317 0046 0F49     		ldr	r1, .L10+8
 318 0048 0023     		movs	r3, #0
 319 004a 0222     		movs	r2, #2
 320 004c 7720     		movs	r0, #119
 321 004e FFF7FEFF 		bl	I2C_I2CMasterReadBuf
 132:I2CMaster.c   ****     while(!(I2C_I2CMasterStatus() & I2C_I2C_MSTAT_RD_CMPLT)); //Wait till the master completes read
 322              		.loc 1 132 0
 323 0052 C046     		nop
 324              	.L9:
ARM GAS  C:\Users\hasur\AppData\Local\Temp\cceDQduE.s 			page 9


 325              		.loc 1 132 0 is_stmt 0 discriminator 1
 326 0054 FFF7FEFF 		bl	I2C_I2CMasterStatus
 327 0058 0200     		movs	r2, r0
 328 005a 0123     		movs	r3, #1
 329 005c 1340     		ands	r3, r2
 330 005e F9D0     		beq	.L9
 133:I2CMaster.c   ****     I2C_I2CMasterClearStatus(); //Clear I2C master status
 331              		.loc 1 133 0 is_stmt 1
 332 0060 FFF7FEFF 		bl	I2C_I2CMasterClearStatus
 134:I2CMaster.c   ****     
 135:I2CMaster.c   **** 	UT = (I2CReadBuffer[0x00] << 0x08) | I2CReadBuffer[0x01]; //Return uncompensated temperature value
 333              		.loc 1 135 0
 334 0064 074B     		ldr	r3, .L10+8
 335 0066 1B78     		ldrb	r3, [r3]
 336 0068 1B02     		lsls	r3, r3, #8
 337 006a 064A     		ldr	r2, .L10+8
 338 006c 5278     		ldrb	r2, [r2, #1]
 339 006e 1A43     		orrs	r2, r3
 340 0070 054B     		ldr	r3, .L10+12
 341 0072 1A60     		str	r2, [r3]
 136:I2CMaster.c   **** }
 342              		.loc 1 136 0
 343 0074 C046     		nop
 344 0076 BD46     		mov	sp, r7
 345              		@ sp needed
 346 0078 80BD     		pop	{r7, pc}
 347              	.L11:
 348 007a C046     		.align	2
 349              	.L10:
 350 007c 0C000000 		.word	I2CWriteBuffer.7789
 351 0080 10000000 		.word	SetReadAddressBuffer.7790
 352 0084 04000000 		.word	I2CReadBuffer.7788
 353 0088 00000000 		.word	UT
 354              		.cfi_endproc
 355              	.LFE36:
 356              		.size	ReadUncompensatedTemperature, .-ReadUncompensatedTemperature
 357              		.section	.text.ReadUncompensatedPressure,"ax",%progbits
 358              		.align	2
 359              		.global	ReadUncompensatedPressure
 360              		.code	16
 361              		.thumb_func
 362              		.type	ReadUncompensatedPressure, %function
 363              	ReadUncompensatedPressure:
 364              	.LFB37:
 137:I2CMaster.c   **** /**************************************************************************************************
 138:I2CMaster.c   **** 
 139:I2CMaster.c   **** /**************************************************************************************************
 140:I2CMaster.c   **** * Function Name: ReadUncompensatedPressure
 141:I2CMaster.c   **** ***************************************************************************************************
 142:I2CMaster.c   **** * Summary: This function writes the pressure conversion command to the sensor and
 143:I2CMaster.c   **** * waits for conversion to complete, and then reads the converted data (uncompensated pressure) and 
 144:I2CMaster.c   **** *
 145:I2CMaster.c   **** * Parameters:
 146:I2CMaster.c   **** *  void
 147:I2CMaster.c   **** *
 148:I2CMaster.c   **** * Return:
 149:I2CMaster.c   **** *  void
ARM GAS  C:\Users\hasur\AppData\Local\Temp\cceDQduE.s 			page 10


 150:I2CMaster.c   **** *
 151:I2CMaster.c   **** ***************************************************************************************************
 152:I2CMaster.c   **** void ReadUncompensatedPressure(void)
 153:I2CMaster.c   **** {
 365              		.loc 1 153 0
 366              		.cfi_startproc
 367              		@ args = 0, pretend = 0, frame = 0
 368              		@ frame_needed = 1, uses_anonymous_args = 0
 369 0000 80B5     		push	{r7, lr}
 370              		.cfi_def_cfa_offset 8
 371              		.cfi_offset 7, -8
 372              		.cfi_offset 14, -4
 373 0002 00AF     		add	r7, sp, #0
 374              		.cfi_def_cfa_register 7
 154:I2CMaster.c   ****     static uint8 I2CReadBuffer[0x03]; //The uncompensated pressure read from the sensor is stored h
 155:I2CMaster.c   ****     static uint8 I2CWriteBuffer[0x02] = {0xF4, 0x34 + (OSS << 0x06)}; //Command for pressure conver
 156:I2CMaster.c   ****     static uint8 SetReadAddressBuffer[0x01] = {0xF6}; //Register address from which the data is rea
 157:I2CMaster.c   ****     
 158:I2CMaster.c   ****     /* Do a write operation with the memory address bytes to get pressure data */
 159:I2CMaster.c   **** 	I2C_I2CMasterWriteBuf(I2CSlaveAddress, (uint8 *) I2CWriteBuffer, sizeof(I2CWriteBuffer), I2C_I2C_M
 375              		.loc 1 159 0
 376 0004 1F49     		ldr	r1, .L16
 377 0006 0023     		movs	r3, #0
 378 0008 0222     		movs	r2, #2
 379 000a 7720     		movs	r0, #119
 380 000c FFF7FEFF 		bl	I2C_I2CMasterWriteBuf
 160:I2CMaster.c   ****     while(!(I2C_I2CMasterStatus() & I2C_I2C_MSTAT_WR_CMPLT)); //Wait till the master completes writ
 381              		.loc 1 160 0
 382 0010 C046     		nop
 383              	.L13:
 384              		.loc 1 160 0 is_stmt 0 discriminator 1
 385 0012 FFF7FEFF 		bl	I2C_I2CMasterStatus
 386 0016 0200     		movs	r2, r0
 387 0018 0223     		movs	r3, #2
 388 001a 1340     		ands	r3, r2
 389 001c F9D0     		beq	.L13
 161:I2CMaster.c   ****     I2C_I2CMasterClearStatus(); //Clear I2C master status
 390              		.loc 1 161 0 is_stmt 1
 391 001e FFF7FEFF 		bl	I2C_I2CMasterClearStatus
 162:I2CMaster.c   ****     
 163:I2CMaster.c   ****     CyDelay(26); //Wait for 26ms pressure conversion
 392              		.loc 1 163 0
 393 0022 1A20     		movs	r0, #26
 394 0024 FFF7FEFF 		bl	CyDelay
 164:I2CMaster.c   ****     
 165:I2CMaster.c   ****     /* In order to do a read from a specific address, do a write operation with the memory address 
 166:I2CMaster.c   **** 	I2C_I2CMasterWriteBuf(I2CSlaveAddress, (uint8 *) SetReadAddressBuffer, sizeof(SetReadAddressBuffer
 395              		.loc 1 166 0
 396 0028 1749     		ldr	r1, .L16+4
 397 002a 0023     		movs	r3, #0
 398 002c 0122     		movs	r2, #1
 399 002e 7720     		movs	r0, #119
 400 0030 FFF7FEFF 		bl	I2C_I2CMasterWriteBuf
 167:I2CMaster.c   ****     while(!(I2C_I2CMasterStatus() & I2C_I2C_MSTAT_WR_CMPLT)); //Wait till the master completes writ
 401              		.loc 1 167 0
 402 0034 C046     		nop
 403              	.L14:
ARM GAS  C:\Users\hasur\AppData\Local\Temp\cceDQduE.s 			page 11


 404              		.loc 1 167 0 is_stmt 0 discriminator 1
 405 0036 FFF7FEFF 		bl	I2C_I2CMasterStatus
 406 003a 0200     		movs	r2, r0
 407 003c 0223     		movs	r3, #2
 408 003e 1340     		ands	r3, r2
 409 0040 F9D0     		beq	.L14
 168:I2CMaster.c   ****     I2C_I2CMasterClearStatus(); //Clear I2C master status
 410              		.loc 1 168 0 is_stmt 1
 411 0042 FFF7FEFF 		bl	I2C_I2CMasterClearStatus
 169:I2CMaster.c   ****     
 170:I2CMaster.c   ****     /* Read pressure from the sensor and store it in a buffer */
 171:I2CMaster.c   **** 	I2C_I2CMasterReadBuf(I2CSlaveAddress, (uint8 *) I2CReadBuffer, sizeof(I2CReadBuffer), I2C_I2C_MODE
 412              		.loc 1 171 0
 413 0046 1149     		ldr	r1, .L16+8
 414 0048 0023     		movs	r3, #0
 415 004a 0322     		movs	r2, #3
 416 004c 7720     		movs	r0, #119
 417 004e FFF7FEFF 		bl	I2C_I2CMasterReadBuf
 172:I2CMaster.c   ****     while(!(I2C_I2CMasterStatus() & I2C_I2C_MSTAT_RD_CMPLT)); //Wait till the master completes read
 418              		.loc 1 172 0
 419 0052 C046     		nop
 420              	.L15:
 421              		.loc 1 172 0 is_stmt 0 discriminator 1
 422 0054 FFF7FEFF 		bl	I2C_I2CMasterStatus
 423 0058 0200     		movs	r2, r0
 424 005a 0123     		movs	r3, #1
 425 005c 1340     		ands	r3, r2
 426 005e F9D0     		beq	.L15
 173:I2CMaster.c   ****     I2C_I2CMasterClearStatus(); //Clear I2C master status
 427              		.loc 1 173 0 is_stmt 1
 428 0060 FFF7FEFF 		bl	I2C_I2CMasterClearStatus
 174:I2CMaster.c   ****     
 175:I2CMaster.c   **** 	UP = ((I2CReadBuffer[0x00] << 0x10) | (I2CReadBuffer[0x01] << 0x08) | I2CReadBuffer[0x02]) >> (0x0
 429              		.loc 1 175 0
 430 0064 094B     		ldr	r3, .L16+8
 431 0066 1B78     		ldrb	r3, [r3]
 432 0068 1A04     		lsls	r2, r3, #16
 433 006a 084B     		ldr	r3, .L16+8
 434 006c 5B78     		ldrb	r3, [r3, #1]
 435 006e 1B02     		lsls	r3, r3, #8
 436 0070 1343     		orrs	r3, r2
 437 0072 064A     		ldr	r2, .L16+8
 438 0074 9278     		ldrb	r2, [r2, #2]
 439 0076 1343     		orrs	r3, r2
 440 0078 5A11     		asrs	r2, r3, #5
 441 007a 054B     		ldr	r3, .L16+12
 442 007c 1A60     		str	r2, [r3]
 176:I2CMaster.c   **** }
 443              		.loc 1 176 0
 444 007e C046     		nop
 445 0080 BD46     		mov	sp, r7
 446              		@ sp needed
 447 0082 80BD     		pop	{r7, pc}
 448              	.L17:
 449              		.align	2
 450              	.L16:
 451 0084 14000000 		.word	I2CWriteBuffer.7804
ARM GAS  C:\Users\hasur\AppData\Local\Temp\cceDQduE.s 			page 12


 452 0088 18000000 		.word	SetReadAddressBuffer.7805
 453 008c 08000000 		.word	I2CReadBuffer.7803
 454 0090 00000000 		.word	UP
 455              		.cfi_endproc
 456              	.LFE37:
 457              		.size	ReadUncompensatedPressure, .-ReadUncompensatedPressure
 458              		.global	__aeabi_i2d
 459              		.global	__aeabi_ddiv
 460              		.global	__aeabi_d2iz
 461              		.global	__aeabi_dmul
 462              		.global	__aeabi_ui2d
 463              		.global	__aeabi_d2uiz
 464              		.global	__aeabi_uidiv
 465              		.global	__aeabi_dadd
 466              		.global	__aeabi_dsub
 467              		.section	.text.ReadAndCalculateSensorData,"ax",%progbits
 468              		.align	2
 469              		.global	ReadAndCalculateSensorData
 470              		.code	16
 471              		.thumb_func
 472              		.type	ReadAndCalculateSensorData, %function
 473              	ReadAndCalculateSensorData:
 474              	.LFB38:
 177:I2CMaster.c   **** /**************************************************************************************************
 178:I2CMaster.c   **** 
 179:I2CMaster.c   **** /**************************************************************************************************
 180:I2CMaster.c   **** * Function Name: ReadCalculateSensorData
 181:I2CMaster.c   **** ***************************************************************************************************
 182:I2CMaster.c   **** * Summary: This function reads the uncompensated temperature and pressure value and converts it
 183:I2CMaster.c   **** * into true temperature, pressure and altitude using the algorithm given in the sensor datasheet.
 184:I2CMaster.c   **** *
 185:I2CMaster.c   **** * Parameters:
 186:I2CMaster.c   **** *  void
 187:I2CMaster.c   **** *
 188:I2CMaster.c   **** * Return:
 189:I2CMaster.c   **** *  void
 190:I2CMaster.c   **** *
 191:I2CMaster.c   **** ***************************************************************************************************
 192:I2CMaster.c   **** void ReadAndCalculateSensorData(void)
 193:I2CMaster.c   **** {
 475              		.loc 1 193 0
 476              		.cfi_startproc
 477              		@ args = 0, pretend = 0, frame = 0
 478              		@ frame_needed = 1, uses_anonymous_args = 0
 479 0000 B0B5     		push	{r4, r5, r7, lr}
 480              		.cfi_def_cfa_offset 16
 481              		.cfi_offset 4, -16
 482              		.cfi_offset 5, -12
 483              		.cfi_offset 7, -8
 484              		.cfi_offset 14, -4
 485 0002 00AF     		add	r7, sp, #0
 486              		.cfi_def_cfa_register 7
 194:I2CMaster.c   ****     /* Read the sensor calibration data if not already available */
 195:I2CMaster.c   **** 	if(!CalibrationDataAvailable)
 487              		.loc 1 195 0
 488 0004 A74B     		ldr	r3, .L23
 489 0006 1B78     		ldrb	r3, [r3]
ARM GAS  C:\Users\hasur\AppData\Local\Temp\cceDQduE.s 			page 13


 490 0008 002B     		cmp	r3, #0
 491 000a 01D1     		bne	.L19
 196:I2CMaster.c   ****     {
 197:I2CMaster.c   ****         ReadSensorCalibrationData(); //Read sensor calibration data
 492              		.loc 1 197 0
 493 000c FFF7FEFF 		bl	ReadSensorCalibrationData
 494              	.L19:
 198:I2CMaster.c   ****     }
 199:I2CMaster.c   ****     
 200:I2CMaster.c   ****     ReadUncompensatedTemperature(); //Read the uncompensated temperature value
 495              		.loc 1 200 0
 496 0010 FFF7FEFF 		bl	ReadUncompensatedTemperature
 201:I2CMaster.c   ****     ReadUncompensatedPressure(); //Read the uncompensated pressure value
 497              		.loc 1 201 0
 498 0014 FFF7FEFF 		bl	ReadUncompensatedPressure
 202:I2CMaster.c   ****     
 203:I2CMaster.c   ****     /* Calculate the true temperature as described in sensor datasheet */
 204:I2CMaster.c   ****     X1 = (UT - AC6) * AC5 / pow(2, 15);
 499              		.loc 1 204 0
 500 0018 A34B     		ldr	r3, .L23+4
 501 001a 1B68     		ldr	r3, [r3]
 502 001c A34A     		ldr	r2, .L23+8
 503 001e 1288     		ldrh	r2, [r2]
 504 0020 9B1A     		subs	r3, r3, r2
 505 0022 A34A     		ldr	r2, .L23+12
 506 0024 1288     		ldrh	r2, [r2]
 507 0026 5343     		muls	r3, r2
 508 0028 1800     		movs	r0, r3
 509 002a FFF7FEFF 		bl	__aeabi_i2d
 510 002e 0022     		movs	r2, #0
 511 0030 A04B     		ldr	r3, .L23+16
 512 0032 FFF7FEFF 		bl	__aeabi_ddiv
 513 0036 0300     		movs	r3, r0
 514 0038 0C00     		movs	r4, r1
 515 003a 1800     		movs	r0, r3
 516 003c 2100     		movs	r1, r4
 517 003e FFF7FEFF 		bl	__aeabi_d2iz
 518 0042 0200     		movs	r2, r0
 519 0044 9C4B     		ldr	r3, .L23+20
 520 0046 1A60     		str	r2, [r3]
 205:I2CMaster.c   ****     X2 = MC * pow(2, 11) / (X1 + MD);
 521              		.loc 1 205 0
 522 0048 9C4B     		ldr	r3, .L23+24
 523 004a 0022     		movs	r2, #0
 524 004c 9B5E     		ldrsh	r3, [r3, r2]
 525 004e 1800     		movs	r0, r3
 526 0050 FFF7FEFF 		bl	__aeabi_i2d
 527 0054 0022     		movs	r2, #0
 528 0056 9A4B     		ldr	r3, .L23+28
 529 0058 FFF7FEFF 		bl	__aeabi_dmul
 530 005c 0300     		movs	r3, r0
 531 005e 0C00     		movs	r4, r1
 532 0060 2500     		movs	r5, r4
 533 0062 1C00     		movs	r4, r3
 534 0064 974B     		ldr	r3, .L23+32
 535 0066 0022     		movs	r2, #0
 536 0068 9B5E     		ldrsh	r3, [r3, r2]
ARM GAS  C:\Users\hasur\AppData\Local\Temp\cceDQduE.s 			page 14


 537 006a 1A00     		movs	r2, r3
 538 006c 924B     		ldr	r3, .L23+20
 539 006e 1B68     		ldr	r3, [r3]
 540 0070 D318     		adds	r3, r2, r3
 541 0072 1800     		movs	r0, r3
 542 0074 FFF7FEFF 		bl	__aeabi_i2d
 543 0078 0200     		movs	r2, r0
 544 007a 0B00     		movs	r3, r1
 545 007c 2000     		movs	r0, r4
 546 007e 2900     		movs	r1, r5
 547 0080 FFF7FEFF 		bl	__aeabi_ddiv
 548 0084 0300     		movs	r3, r0
 549 0086 0C00     		movs	r4, r1
 550 0088 1800     		movs	r0, r3
 551 008a 2100     		movs	r1, r4
 552 008c FFF7FEFF 		bl	__aeabi_d2iz
 553 0090 0200     		movs	r2, r0
 554 0092 8D4B     		ldr	r3, .L23+36
 555 0094 1A60     		str	r2, [r3]
 206:I2CMaster.c   ****     B5 = X1 + X2;
 556              		.loc 1 206 0
 557 0096 884B     		ldr	r3, .L23+20
 558 0098 1A68     		ldr	r2, [r3]
 559 009a 8B4B     		ldr	r3, .L23+36
 560 009c 1B68     		ldr	r3, [r3]
 561 009e D218     		adds	r2, r2, r3
 562 00a0 8A4B     		ldr	r3, .L23+40
 563 00a2 1A60     		str	r2, [r3]
 207:I2CMaster.c   ****     Temperature = (B5 + 8) / pow(2, 4);
 564              		.loc 1 207 0
 565 00a4 894B     		ldr	r3, .L23+40
 566 00a6 1B68     		ldr	r3, [r3]
 567 00a8 0833     		adds	r3, r3, #8
 568 00aa 1800     		movs	r0, r3
 569 00ac FFF7FEFF 		bl	__aeabi_i2d
 570 00b0 0022     		movs	r2, #0
 571 00b2 874B     		ldr	r3, .L23+44
 572 00b4 FFF7FEFF 		bl	__aeabi_ddiv
 573 00b8 0300     		movs	r3, r0
 574 00ba 0C00     		movs	r4, r1
 575 00bc 1800     		movs	r0, r3
 576 00be 2100     		movs	r1, r4
 577 00c0 FFF7FEFF 		bl	__aeabi_d2iz
 578 00c4 0200     		movs	r2, r0
 579 00c6 834B     		ldr	r3, .L23+48
 580 00c8 1A60     		str	r2, [r3]
 208:I2CMaster.c   ****     
 209:I2CMaster.c   ****     /* Calculate the true barometric pressure as described in sensor datasheet */
 210:I2CMaster.c   ****     B6 = B5 - 4000;
 581              		.loc 1 210 0
 582 00ca 804B     		ldr	r3, .L23+40
 583 00cc 1B68     		ldr	r3, [r3]
 584 00ce 824A     		ldr	r2, .L23+52
 585 00d0 9A18     		adds	r2, r3, r2
 586 00d2 824B     		ldr	r3, .L23+56
 587 00d4 1A60     		str	r2, [r3]
 211:I2CMaster.c   ****     X1 = (B2 * (B6 * B6 / pow(2, 12))) / pow(2, 11);
ARM GAS  C:\Users\hasur\AppData\Local\Temp\cceDQduE.s 			page 15


 588              		.loc 1 211 0
 589 00d6 824B     		ldr	r3, .L23+60
 590 00d8 0022     		movs	r2, #0
 591 00da 9B5E     		ldrsh	r3, [r3, r2]
 592 00dc 1800     		movs	r0, r3
 593 00de FFF7FEFF 		bl	__aeabi_i2d
 594 00e2 0400     		movs	r4, r0
 595 00e4 0D00     		movs	r5, r1
 596 00e6 7D4B     		ldr	r3, .L23+56
 597 00e8 1A68     		ldr	r2, [r3]
 598 00ea 7C4B     		ldr	r3, .L23+56
 599 00ec 1B68     		ldr	r3, [r3]
 600 00ee 5343     		muls	r3, r2
 601 00f0 1800     		movs	r0, r3
 602 00f2 FFF7FEFF 		bl	__aeabi_i2d
 603 00f6 0022     		movs	r2, #0
 604 00f8 7A4B     		ldr	r3, .L23+64
 605 00fa FFF7FEFF 		bl	__aeabi_ddiv
 606 00fe 0200     		movs	r2, r0
 607 0100 0B00     		movs	r3, r1
 608 0102 2000     		movs	r0, r4
 609 0104 2900     		movs	r1, r5
 610 0106 FFF7FEFF 		bl	__aeabi_dmul
 611 010a 0300     		movs	r3, r0
 612 010c 0C00     		movs	r4, r1
 613 010e 1800     		movs	r0, r3
 614 0110 2100     		movs	r1, r4
 615 0112 0022     		movs	r2, #0
 616 0114 6A4B     		ldr	r3, .L23+28
 617 0116 FFF7FEFF 		bl	__aeabi_ddiv
 618 011a 0300     		movs	r3, r0
 619 011c 0C00     		movs	r4, r1
 620 011e 1800     		movs	r0, r3
 621 0120 2100     		movs	r1, r4
 622 0122 FFF7FEFF 		bl	__aeabi_d2iz
 623 0126 0200     		movs	r2, r0
 624 0128 634B     		ldr	r3, .L23+20
 625 012a 1A60     		str	r2, [r3]
 212:I2CMaster.c   ****     X2 = AC2 * B6 / pow(2, 11);
 626              		.loc 1 212 0
 627 012c 6E4B     		ldr	r3, .L23+68
 628 012e 0022     		movs	r2, #0
 629 0130 9B5E     		ldrsh	r3, [r3, r2]
 630 0132 1A00     		movs	r2, r3
 631 0134 694B     		ldr	r3, .L23+56
 632 0136 1B68     		ldr	r3, [r3]
 633 0138 5343     		muls	r3, r2
 634 013a 1800     		movs	r0, r3
 635 013c FFF7FEFF 		bl	__aeabi_i2d
 636 0140 0022     		movs	r2, #0
 637 0142 5F4B     		ldr	r3, .L23+28
 638 0144 FFF7FEFF 		bl	__aeabi_ddiv
 639 0148 0300     		movs	r3, r0
 640 014a 0C00     		movs	r4, r1
 641 014c 1800     		movs	r0, r3
 642 014e 2100     		movs	r1, r4
 643 0150 FFF7FEFF 		bl	__aeabi_d2iz
ARM GAS  C:\Users\hasur\AppData\Local\Temp\cceDQduE.s 			page 16


 644 0154 0200     		movs	r2, r0
 645 0156 5C4B     		ldr	r3, .L23+36
 646 0158 1A60     		str	r2, [r3]
 213:I2CMaster.c   ****     X3 = X1 + X2;
 647              		.loc 1 213 0
 648 015a 574B     		ldr	r3, .L23+20
 649 015c 1A68     		ldr	r2, [r3]
 650 015e 5A4B     		ldr	r3, .L23+36
 651 0160 1B68     		ldr	r3, [r3]
 652 0162 D218     		adds	r2, r2, r3
 653 0164 614B     		ldr	r3, .L23+72
 654 0166 1A60     		str	r2, [r3]
 214:I2CMaster.c   ****     B3 = (((AC1 * 4 + X3) << OSS) + 2) / 4;
 655              		.loc 1 214 0
 656 0168 614B     		ldr	r3, .L23+76
 657 016a 0022     		movs	r2, #0
 658 016c 9B5E     		ldrsh	r3, [r3, r2]
 659 016e 9A00     		lsls	r2, r3, #2
 660 0170 5E4B     		ldr	r3, .L23+72
 661 0172 1B68     		ldr	r3, [r3]
 662 0174 D318     		adds	r3, r2, r3
 663 0176 DB00     		lsls	r3, r3, #3
 664 0178 0233     		adds	r3, r3, #2
 665 017a 002B     		cmp	r3, #0
 666 017c 00DA     		bge	.L20
 667 017e 0333     		adds	r3, r3, #3
 668              	.L20:
 669 0180 9B10     		asrs	r3, r3, #2
 670 0182 1A00     		movs	r2, r3
 671 0184 5B4B     		ldr	r3, .L23+80
 672 0186 1A60     		str	r2, [r3]
 215:I2CMaster.c   ****     X1 = AC3 * B6 / pow(2, 13);
 673              		.loc 1 215 0
 674 0188 5B4B     		ldr	r3, .L23+84
 675 018a 0022     		movs	r2, #0
 676 018c 9B5E     		ldrsh	r3, [r3, r2]
 677 018e 1A00     		movs	r2, r3
 678 0190 524B     		ldr	r3, .L23+56
 679 0192 1B68     		ldr	r3, [r3]
 680 0194 5343     		muls	r3, r2
 681 0196 1800     		movs	r0, r3
 682 0198 FFF7FEFF 		bl	__aeabi_i2d
 683 019c 0022     		movs	r2, #0
 684 019e 574B     		ldr	r3, .L23+88
 685 01a0 FFF7FEFF 		bl	__aeabi_ddiv
 686 01a4 0300     		movs	r3, r0
 687 01a6 0C00     		movs	r4, r1
 688 01a8 1800     		movs	r0, r3
 689 01aa 2100     		movs	r1, r4
 690 01ac FFF7FEFF 		bl	__aeabi_d2iz
 691 01b0 0200     		movs	r2, r0
 692 01b2 414B     		ldr	r3, .L23+20
 693 01b4 1A60     		str	r2, [r3]
 216:I2CMaster.c   ****     X2 = (B1 * (B6 * B6 / pow(2, 12))) / pow(2, 16);
 694              		.loc 1 216 0
 695 01b6 524B     		ldr	r3, .L23+92
 696 01b8 0022     		movs	r2, #0
ARM GAS  C:\Users\hasur\AppData\Local\Temp\cceDQduE.s 			page 17


 697 01ba 9B5E     		ldrsh	r3, [r3, r2]
 698 01bc 1800     		movs	r0, r3
 699 01be FFF7FEFF 		bl	__aeabi_i2d
 700 01c2 0400     		movs	r4, r0
 701 01c4 0D00     		movs	r5, r1
 702 01c6 454B     		ldr	r3, .L23+56
 703 01c8 1A68     		ldr	r2, [r3]
 704 01ca 444B     		ldr	r3, .L23+56
 705 01cc 1B68     		ldr	r3, [r3]
 706 01ce 5343     		muls	r3, r2
 707 01d0 1800     		movs	r0, r3
 708 01d2 FFF7FEFF 		bl	__aeabi_i2d
 709 01d6 0022     		movs	r2, #0
 710 01d8 424B     		ldr	r3, .L23+64
 711 01da FFF7FEFF 		bl	__aeabi_ddiv
 712 01de 0200     		movs	r2, r0
 713 01e0 0B00     		movs	r3, r1
 714 01e2 2000     		movs	r0, r4
 715 01e4 2900     		movs	r1, r5
 716 01e6 FFF7FEFF 		bl	__aeabi_dmul
 717 01ea 0300     		movs	r3, r0
 718 01ec 0C00     		movs	r4, r1
 719 01ee 1800     		movs	r0, r3
 720 01f0 2100     		movs	r1, r4
 721 01f2 0022     		movs	r2, #0
 722 01f4 434B     		ldr	r3, .L23+96
 723 01f6 FFF7FEFF 		bl	__aeabi_ddiv
 724 01fa 0300     		movs	r3, r0
 725 01fc 0C00     		movs	r4, r1
 726 01fe 1800     		movs	r0, r3
 727 0200 2100     		movs	r1, r4
 728 0202 FFF7FEFF 		bl	__aeabi_d2iz
 729 0206 0200     		movs	r2, r0
 730 0208 2F4B     		ldr	r3, .L23+36
 731 020a 1A60     		str	r2, [r3]
 217:I2CMaster.c   ****     X3 = ((X1 + X2) + 2) / pow(2, 2);
 732              		.loc 1 217 0
 733 020c 2A4B     		ldr	r3, .L23+20
 734 020e 1A68     		ldr	r2, [r3]
 735 0210 2D4B     		ldr	r3, .L23+36
 736 0212 1B68     		ldr	r3, [r3]
 737 0214 D318     		adds	r3, r2, r3
 738 0216 0233     		adds	r3, r3, #2
 739 0218 1800     		movs	r0, r3
 740 021a FFF7FEFF 		bl	__aeabi_i2d
 741 021e 0022     		movs	r2, #0
 742 0220 394B     		ldr	r3, .L23+100
 743 0222 FFF7FEFF 		bl	__aeabi_ddiv
 744 0226 0300     		movs	r3, r0
 745 0228 0C00     		movs	r4, r1
 746 022a 1800     		movs	r0, r3
 747 022c 2100     		movs	r1, r4
 748 022e FFF7FEFF 		bl	__aeabi_d2iz
 749 0232 0200     		movs	r2, r0
 750 0234 2D4B     		ldr	r3, .L23+72
 751 0236 1A60     		str	r2, [r3]
 218:I2CMaster.c   ****     B4 = (AC4 * (unsigned long)(X3 + 32768)) / pow(2, 15);
ARM GAS  C:\Users\hasur\AppData\Local\Temp\cceDQduE.s 			page 18


 752              		.loc 1 218 0
 753 0238 344B     		ldr	r3, .L23+104
 754 023a 1B88     		ldrh	r3, [r3]
 755 023c 1A00     		movs	r2, r3
 756 023e 2B4B     		ldr	r3, .L23+72
 757 0240 1B68     		ldr	r3, [r3]
 758 0242 8021     		movs	r1, #128
 759 0244 0902     		lsls	r1, r1, #8
 760 0246 8C46     		mov	ip, r1
 761 0248 6344     		add	r3, r3, ip
 762 024a 5343     		muls	r3, r2
 763 024c 1800     		movs	r0, r3
 764 024e FFF7FEFF 		bl	__aeabi_ui2d
 765 0252 0022     		movs	r2, #0
 766 0254 174B     		ldr	r3, .L23+16
 767 0256 FFF7FEFF 		bl	__aeabi_ddiv
 768 025a 0300     		movs	r3, r0
 769 025c 0C00     		movs	r4, r1
 770 025e 1800     		movs	r0, r3
 771 0260 2100     		movs	r1, r4
 772 0262 FFF7FEFF 		bl	__aeabi_d2uiz
 773 0266 0200     		movs	r2, r0
 774 0268 294B     		ldr	r3, .L23+108
 775 026a 1A60     		str	r2, [r3]
 219:I2CMaster.c   ****     B7 = ((unsigned long)UP - B3) * (50000 >> OSS);
 776              		.loc 1 219 0
 777 026c 294B     		ldr	r3, .L23+112
 778 026e 1B68     		ldr	r3, [r3]
 779 0270 1A00     		movs	r2, r3
 780 0272 204B     		ldr	r3, .L23+80
 781 0274 1B68     		ldr	r3, [r3]
 782 0276 D31A     		subs	r3, r2, r3
 783 0278 274A     		ldr	r2, .L23+116
 784 027a 5A43     		muls	r2, r3
 785 027c 274B     		ldr	r3, .L23+120
 786 027e 1A60     		str	r2, [r3]
 220:I2CMaster.c   ****     if(B7 < 0x80000000)
 787              		.loc 1 220 0
 788 0280 264B     		ldr	r3, .L23+120
 789 0282 1B68     		ldr	r3, [r3]
 790 0284 002B     		cmp	r3, #0
 791 0286 4DDB     		blt	.L21
 221:I2CMaster.c   ****     {
 222:I2CMaster.c   ****         Pressure = (B7 *2) / B4;
 792              		.loc 1 222 0
 793 0288 244B     		ldr	r3, .L23+120
 794 028a 1B68     		ldr	r3, [r3]
 795 028c 5A00     		lsls	r2, r3, #1
 796 028e 204B     		ldr	r3, .L23+108
 797 0290 1B68     		ldr	r3, [r3]
 798 0292 1900     		movs	r1, r3
 799 0294 1000     		movs	r0, r2
 800 0296 FFF7FEFF 		bl	__aeabi_uidiv
 801 029a 0300     		movs	r3, r0
 802 029c 1A00     		movs	r2, r3
 803 029e 204B     		ldr	r3, .L23+124
 804 02a0 1A60     		str	r2, [r3]
ARM GAS  C:\Users\hasur\AppData\Local\Temp\cceDQduE.s 			page 19


 805 02a2 4CE0     		b	.L22
 806              	.L24:
 807              		.align	2
 808              	.L23:
 809 02a4 00000000 		.word	CalibrationDataAvailable
 810 02a8 00000000 		.word	UT
 811 02ac 00000000 		.word	AC6
 812 02b0 00000000 		.word	AC5
 813 02b4 0000E040 		.word	1088421888
 814 02b8 00000000 		.word	X1
 815 02bc 00000000 		.word	MC
 816 02c0 0000A040 		.word	1084227584
 817 02c4 00000000 		.word	MD
 818 02c8 00000000 		.word	X2
 819 02cc 00000000 		.word	B5
 820 02d0 00003040 		.word	1076887552
 821 02d4 00000000 		.word	Temperature
 822 02d8 60F0FFFF 		.word	-4000
 823 02dc 00000000 		.word	B6
 824 02e0 00000000 		.word	B2
 825 02e4 0000B040 		.word	1085276160
 826 02e8 00000000 		.word	AC2
 827 02ec 00000000 		.word	X3
 828 02f0 00000000 		.word	AC1
 829 02f4 00000000 		.word	B3
 830 02f8 00000000 		.word	AC3
 831 02fc 0000C040 		.word	1086324736
 832 0300 00000000 		.word	B1
 833 0304 0000F040 		.word	1089470464
 834 0308 00001040 		.word	1074790400
 835 030c 00000000 		.word	AC4
 836 0310 00000000 		.word	B4
 837 0314 00000000 		.word	UP
 838 0318 6A180000 		.word	6250
 839 031c 00000000 		.word	B7
 840 0320 00000000 		.word	Pressure
 841              	.L21:
 223:I2CMaster.c   ****     }
 224:I2CMaster.c   ****     else 
 225:I2CMaster.c   ****     {
 226:I2CMaster.c   ****         Pressure = (B7 / B4) *2;
 842              		.loc 1 226 0
 843 0324 584B     		ldr	r3, .L25
 844 0326 1A68     		ldr	r2, [r3]
 845 0328 584B     		ldr	r3, .L25+4
 846 032a 1B68     		ldr	r3, [r3]
 847 032c 1900     		movs	r1, r3
 848 032e 1000     		movs	r0, r2
 849 0330 FFF7FEFF 		bl	__aeabi_uidiv
 850 0334 0300     		movs	r3, r0
 851 0336 5B00     		lsls	r3, r3, #1
 852 0338 1A00     		movs	r2, r3
 853 033a 554B     		ldr	r3, .L25+8
 854 033c 1A60     		str	r2, [r3]
 855              	.L22:
 227:I2CMaster.c   ****     }
 228:I2CMaster.c   ****     X1 = (Pressure / pow(2, 8)) * (Pressure / pow(2, 8));
ARM GAS  C:\Users\hasur\AppData\Local\Temp\cceDQduE.s 			page 20


 856              		.loc 1 228 0
 857 033e 544B     		ldr	r3, .L25+8
 858 0340 1B68     		ldr	r3, [r3]
 859 0342 1800     		movs	r0, r3
 860 0344 FFF7FEFF 		bl	__aeabi_i2d
 861 0348 0022     		movs	r2, #0
 862 034a 524B     		ldr	r3, .L25+12
 863 034c FFF7FEFF 		bl	__aeabi_ddiv
 864 0350 0300     		movs	r3, r0
 865 0352 0C00     		movs	r4, r1
 866 0354 2500     		movs	r5, r4
 867 0356 1C00     		movs	r4, r3
 868 0358 4D4B     		ldr	r3, .L25+8
 869 035a 1B68     		ldr	r3, [r3]
 870 035c 1800     		movs	r0, r3
 871 035e FFF7FEFF 		bl	__aeabi_i2d
 872 0362 0022     		movs	r2, #0
 873 0364 4B4B     		ldr	r3, .L25+12
 874 0366 FFF7FEFF 		bl	__aeabi_ddiv
 875 036a 0200     		movs	r2, r0
 876 036c 0B00     		movs	r3, r1
 877 036e 2000     		movs	r0, r4
 878 0370 2900     		movs	r1, r5
 879 0372 FFF7FEFF 		bl	__aeabi_dmul
 880 0376 0300     		movs	r3, r0
 881 0378 0C00     		movs	r4, r1
 882 037a 1800     		movs	r0, r3
 883 037c 2100     		movs	r1, r4
 884 037e FFF7FEFF 		bl	__aeabi_d2iz
 885 0382 0200     		movs	r2, r0
 886 0384 444B     		ldr	r3, .L25+16
 887 0386 1A60     		str	r2, [r3]
 229:I2CMaster.c   ****     X1 = (X1 * 3038) / pow(2, 16);
 888              		.loc 1 229 0
 889 0388 434B     		ldr	r3, .L25+16
 890 038a 1B68     		ldr	r3, [r3]
 891 038c 434A     		ldr	r2, .L25+20
 892 038e 5343     		muls	r3, r2
 893 0390 1800     		movs	r0, r3
 894 0392 FFF7FEFF 		bl	__aeabi_i2d
 895 0396 0022     		movs	r2, #0
 896 0398 414B     		ldr	r3, .L25+24
 897 039a FFF7FEFF 		bl	__aeabi_ddiv
 898 039e 0300     		movs	r3, r0
 899 03a0 0C00     		movs	r4, r1
 900 03a2 1800     		movs	r0, r3
 901 03a4 2100     		movs	r1, r4
 902 03a6 FFF7FEFF 		bl	__aeabi_d2iz
 903 03aa 0200     		movs	r2, r0
 904 03ac 3A4B     		ldr	r3, .L25+16
 905 03ae 1A60     		str	r2, [r3]
 230:I2CMaster.c   ****     X2 = (-7357 * Pressure) / pow(2, 16);
 906              		.loc 1 230 0
 907 03b0 374B     		ldr	r3, .L25+8
 908 03b2 1B68     		ldr	r3, [r3]
 909 03b4 3B4A     		ldr	r2, .L25+28
 910 03b6 5343     		muls	r3, r2
ARM GAS  C:\Users\hasur\AppData\Local\Temp\cceDQduE.s 			page 21


 911 03b8 1800     		movs	r0, r3
 912 03ba FFF7FEFF 		bl	__aeabi_i2d
 913 03be 0022     		movs	r2, #0
 914 03c0 374B     		ldr	r3, .L25+24
 915 03c2 FFF7FEFF 		bl	__aeabi_ddiv
 916 03c6 0300     		movs	r3, r0
 917 03c8 0C00     		movs	r4, r1
 918 03ca 1800     		movs	r0, r3
 919 03cc 2100     		movs	r1, r4
 920 03ce FFF7FEFF 		bl	__aeabi_d2iz
 921 03d2 0200     		movs	r2, r0
 922 03d4 344B     		ldr	r3, .L25+32
 923 03d6 1A60     		str	r2, [r3]
 231:I2CMaster.c   ****     Pressure = Pressure + (X1 + X2 + 3791) / pow(2, 4);
 924              		.loc 1 231 0
 925 03d8 2D4B     		ldr	r3, .L25+8
 926 03da 1B68     		ldr	r3, [r3]
 927 03dc 1800     		movs	r0, r3
 928 03de FFF7FEFF 		bl	__aeabi_i2d
 929 03e2 0400     		movs	r4, r0
 930 03e4 0D00     		movs	r5, r1
 931 03e6 2C4B     		ldr	r3, .L25+16
 932 03e8 1A68     		ldr	r2, [r3]
 933 03ea 2F4B     		ldr	r3, .L25+32
 934 03ec 1B68     		ldr	r3, [r3]
 935 03ee D318     		adds	r3, r2, r3
 936 03f0 2E4A     		ldr	r2, .L25+36
 937 03f2 9446     		mov	ip, r2
 938 03f4 6344     		add	r3, r3, ip
 939 03f6 1800     		movs	r0, r3
 940 03f8 FFF7FEFF 		bl	__aeabi_i2d
 941 03fc 0022     		movs	r2, #0
 942 03fe 2C4B     		ldr	r3, .L25+40
 943 0400 FFF7FEFF 		bl	__aeabi_ddiv
 944 0404 0200     		movs	r2, r0
 945 0406 0B00     		movs	r3, r1
 946 0408 2000     		movs	r0, r4
 947 040a 2900     		movs	r1, r5
 948 040c FFF7FEFF 		bl	__aeabi_dadd
 949 0410 0300     		movs	r3, r0
 950 0412 0C00     		movs	r4, r1
 951 0414 1800     		movs	r0, r3
 952 0416 2100     		movs	r1, r4
 953 0418 FFF7FEFF 		bl	__aeabi_d2iz
 954 041c 0200     		movs	r2, r0
 955 041e 1C4B     		ldr	r3, .L25+8
 956 0420 1A60     		str	r2, [r3]
 232:I2CMaster.c   ****     
 233:I2CMaster.c   ****     /* Calculate the true altitude based on pressure at sea level as described in sensor datasheet 
 234:I2CMaster.c   ****     Altitude = 44330 * (1 - (pow(Pressure/PressureAtSeaLevel, 1/5.255)));
 957              		.loc 1 234 0
 958 0422 1B4B     		ldr	r3, .L25+8
 959 0424 1B68     		ldr	r3, [r3]
 960 0426 1800     		movs	r0, r3
 961 0428 FFF7FEFF 		bl	__aeabi_i2d
 962 042c 214B     		ldr	r3, .L25+44
 963 042e 5C68     		ldr	r4, [r3, #4]
ARM GAS  C:\Users\hasur\AppData\Local\Temp\cceDQduE.s 			page 22


 964 0430 1B68     		ldr	r3, [r3]
 965 0432 1A00     		movs	r2, r3
 966 0434 2300     		movs	r3, r4
 967 0436 FFF7FEFF 		bl	__aeabi_ddiv
 968 043a 0300     		movs	r3, r0
 969 043c 0C00     		movs	r4, r1
 970 043e 1800     		movs	r0, r3
 971 0440 2100     		movs	r1, r4
 972 0442 1D4B     		ldr	r3, .L25+48
 973 0444 1D4C     		ldr	r4, .L25+52
 974 0446 1A00     		movs	r2, r3
 975 0448 2300     		movs	r3, r4
 976 044a FFF7FEFF 		bl	pow
 977 044e 0300     		movs	r3, r0
 978 0450 0C00     		movs	r4, r1
 979 0452 1A00     		movs	r2, r3
 980 0454 2300     		movs	r3, r4
 981 0456 0020     		movs	r0, #0
 982 0458 1949     		ldr	r1, .L25+56
 983 045a FFF7FEFF 		bl	__aeabi_dsub
 984 045e 0300     		movs	r3, r0
 985 0460 0C00     		movs	r4, r1
 986 0462 1800     		movs	r0, r3
 987 0464 2100     		movs	r1, r4
 988 0466 0022     		movs	r2, #0
 989 0468 164B     		ldr	r3, .L25+60
 990 046a FFF7FEFF 		bl	__aeabi_dmul
 991 046e 0300     		movs	r3, r0
 992 0470 0C00     		movs	r4, r1
 993 0472 1800     		movs	r0, r3
 994 0474 2100     		movs	r1, r4
 995 0476 FFF7FEFF 		bl	__aeabi_d2iz
 996 047a 0200     		movs	r2, r0
 997 047c 124B     		ldr	r3, .L25+64
 998 047e 1A60     		str	r2, [r3]
 235:I2CMaster.c   **** }
 999              		.loc 1 235 0
 1000 0480 C046     		nop
 1001 0482 BD46     		mov	sp, r7
 1002              		@ sp needed
 1003 0484 B0BD     		pop	{r4, r5, r7, pc}
 1004              	.L26:
 1005 0486 C046     		.align	2
 1006              	.L25:
 1007 0488 00000000 		.word	B7
 1008 048c 00000000 		.word	B4
 1009 0490 00000000 		.word	Pressure
 1010 0494 00007040 		.word	1081081856
 1011 0498 00000000 		.word	X1
 1012 049c DE0B0000 		.word	3038
 1013 04a0 0000F040 		.word	1089470464
 1014 04a4 43E3FFFF 		.word	-7357
 1015 04a8 00000000 		.word	X2
 1016 04ac CF0E0000 		.word	3791
 1017 04b0 00003040 		.word	1076887552
 1018 04b4 00000000 		.word	PressureAtSeaLevel
 1019 04b8 6C45D9CC 		.word	-858176148
ARM GAS  C:\Users\hasur\AppData\Local\Temp\cceDQduE.s 			page 23


 1020 04bc 955BC83F 		.word	1070095253
 1021 04c0 0000F03F 		.word	1072693248
 1022 04c4 40A5E540 		.word	1088791872
 1023 04c8 00000000 		.word	Altitude
 1024              		.cfi_endproc
 1025              	.LFE38:
 1026              		.size	ReadAndCalculateSensorData, .-ReadAndCalculateSensorData
 1027              		.data
 1028              		.align	2
 1029              		.type	I2CWriteBuffer.7778, %object
 1030              		.size	I2CWriteBuffer.7778, 1
 1031              	I2CWriteBuffer.7778:
 1032 0008 AA       		.byte	-86
 1033 0009 000000   		.align	2
 1034              		.type	I2CWriteBuffer.7789, %object
 1035              		.size	I2CWriteBuffer.7789, 2
 1036              	I2CWriteBuffer.7789:
 1037 000c F4       		.byte	-12
 1038 000d 2E       		.byte	46
 1039 000e 0000     		.align	2
 1040              		.type	SetReadAddressBuffer.7790, %object
 1041              		.size	SetReadAddressBuffer.7790, 1
 1042              	SetReadAddressBuffer.7790:
 1043 0010 F6       		.byte	-10
 1044              		.bss
 1045 0001 000000   		.align	2
 1046              	I2CReadBuffer.7788:
 1047 0004 0000     		.space	2
 1048              		.data
 1049 0011 000000   		.align	2
 1050              		.type	I2CWriteBuffer.7804, %object
 1051              		.size	I2CWriteBuffer.7804, 2
 1052              	I2CWriteBuffer.7804:
 1053 0014 F4       		.byte	-12
 1054 0015 F4       		.byte	-12
 1055 0016 0000     		.align	2
 1056              		.type	SetReadAddressBuffer.7805, %object
 1057              		.size	SetReadAddressBuffer.7805, 1
 1058              	SetReadAddressBuffer.7805:
 1059 0018 F6       		.byte	-10
 1060              		.bss
 1061 0006 0000     		.align	2
 1062              	I2CReadBuffer.7803:
 1063 0008 000000   		.space	3
 1064              		.text
 1065              	.Letext0:
 1066              		.file 2 "Generated_Source\\PSoC4/cytypes.h"
 1067              		.file 3 "Generated_Source\\PSoC4/BLE_Stack.h"