ARM GAS  C:\Users\hasur\AppData\Local\Temp\cc2ES7qg.s 			page 1


   1              		.syntax unified
   2              		.cpu cortex-m0
   3              		.fpu softvfp
   4              		.eabi_attribute 20, 1
   5              		.eabi_attribute 21, 1
   6              		.eabi_attribute 23, 3
   7              		.eabi_attribute 24, 1
   8              		.eabi_attribute 25, 1
   9              		.eabi_attribute 26, 1
  10              		.eabi_attribute 30, 6
  11              		.eabi_attribute 34, 0
  12              		.eabi_attribute 18, 4
  13              		.thumb
  14              		.syntax unified
  15              		.file	"main.c"
  16              		.text
  17              	.Ltext0:
  18              		.cfi_sections	.debug_frame
  19              		.global	ChangePowerPinDriveMode
  20              		.data
  21              		.type	ChangePowerPinDriveMode, %object
  22              		.size	ChangePowerPinDriveMode, 1
  23              	ChangePowerPinDriveMode:
  24 0000 01       		.byte	1
  25              		.global	NotificationDelayCounter
  26              		.type	NotificationDelayCounter, %object
  27              		.size	NotificationDelayCounter, 1
  28              	NotificationDelayCounter:
  29 0001 20       		.byte	32
  30              		.global	LEDDelayCounter
  31              		.type	LEDDelayCounter, %object
  32              		.size	LEDDelayCounter, 1
  33              	LEDDelayCounter:
  34 0002 32       		.byte	50
  35              		.comm	LastTemperatureData1,4,4
  36              		.comm	LastPressureData,4,4
  37              		.comm	LastAltitudeData,4,4
  38              		.bss
  39              	SleepMode:
  40 0000 00       		.space	1
  41              	BlessState:
  42 0001 00       		.space	1
  43              		.comm	StatusofTemp,4,4
  44              		.section	.text.main,"ax",%progbits
  45              		.align	2
  46              		.global	main
  47              		.code	16
  48              		.thumb_func
  49              		.type	main, %function
  50              	main:
  51              	.LFB35:
  52              		.file 1 "main.c"
   1:main.c        **** /**************************************************************************************************
   2:main.c        **** * Project Name		: PSoC_4_BLE_Pressure_Sensor
   3:main.c        **** * File Name			: main.c
   4:main.c        **** * Version 			: 1.0
   5:main.c        **** * Device Used		: CY8C4247LQI-BL483
ARM GAS  C:\Users\hasur\AppData\Local\Temp\cc2ES7qg.s 			page 2


   6:main.c        **** * Software Used		: PSoC Creator 3.1
   7:main.c        **** * Compiler    		: ARM GCC 4.8.4
   8:main.c        **** * Related Hardware	: CY8CKIT-042-BLE Bluetooth Low Energy Pioneer Kit
   9:main.c        **** ***************************************************************************************************
  10:main.c        **** 
  11:main.c        **** /**************************************************************************************************
  12:main.c        **** * Copyright (2015), Cypress Semiconductor Corporation. All Rights Reserved.
  13:main.c        **** ***************************************************************************************************
  14:main.c        **** * This software, including source code, documentation and related materials
  15:main.c        **** * ("Software") is owned by Cypress Semiconductor Corporation (Cypress) and is
  16:main.c        **** * protected by and subject to worldwide patent protection (United States and 
  17:main.c        **** * foreign), United States copyright laws and international treaty provisions. 
  18:main.c        **** * Cypress hereby grants to licensee a personal, non-exclusive, non-transferable
  19:main.c        **** * license to copy, use, modify, create derivative works of, and compile the 
  20:main.c        **** * Cypress source code and derivative works for the sole purpose of creating 
  21:main.c        **** * custom software in support of licensee product, such licensee product to be
  22:main.c        **** * used only in conjunction with Cypress's integrated circuit as specified in the
  23:main.c        **** * applicable agreement. Any reproduction, modification, translation, compilation,
  24:main.c        **** * or representation of this Software except as specified above is prohibited 
  25:main.c        **** * without the express written permission of Cypress.
  26:main.c        **** * 
  27:main.c        **** * Disclaimer: THIS SOFTWARE IS PROVIDED AS-IS, WITH NO WARRANTY OF ANY KIND, 
  28:main.c        **** * EXPRESS OR IMPLIED, INCLUDING, BUT NOT LIMITED TO, NONINFRINGEMENT, IMPLIED 
  29:main.c        **** * WARRANTIES OF MERCHANTABILITY AND FITNESS FOR A PARTICULAR PURPOSE.
  30:main.c        **** * Cypress reserves the right to make changes to the Software without notice. 
  31:main.c        **** * Cypress does not assume any liability arising out of the application or use
  32:main.c        **** * of Software or any product or circuit described in the Software. Cypress does
  33:main.c        **** * not authorize its products for use as critical components in any products 
  34:main.c        **** * where a malfunction or failure may reasonably be expected to result in 
  35:main.c        **** * significant injury or death ("ACTIVE Risk Product"). By including Cypress's 
  36:main.c        **** * product in a ACTIVE Risk Product, the manufacturer of such system or application
  37:main.c        **** * assumes all risk of such use and in doing so indemnifies Cypress against all
  38:main.c        **** * liability. Use of this Software may be limited by and subject to the applicable
  39:main.c        **** * Cypress software license agreement.
  40:main.c        **** ***************************************************************************************************
  41:main.c        **** 
  42:main.c        **** /**************************************************************************************************
  43:main.c        **** *                           THEORY OF OPERATION
  44:main.c        **** ***************************************************************************************************
  45:main.c        **** * This project showcases the capability of PSoC 4 BLE to communicate with an I2C digital sensor and
  46:main.c        **** * The data communicated over BLE is the Temperature, Barometric Pressure and Altitude value acquire
  47:main.c        **** * This project uses an I2C component (Master) to acquire the data from the sensor and reports it to
  48:main.c        **** * The sensor data sent to the Central device over a Custom Service.
  49:main.c        **** * The Custom Service allows notifications to be sent to Central device when enabled.
  50:main.c        **** * 
  51:main.c        **** * For Adafruit's BMP180 Pressure Sensor theory of operation, please refer to the sensor datasheet.
  52:main.c        **** * http://www.adafruit.com/product/1603
  53:main.c        **** 
  54:main.c        **** ***************************************************************************************************
  55:main.c        **** * Note: The programming pins in the project have been configured as SWD.
  56:main.c        **** * With this settings, the PSoC 4 BLE device consumes extra power through the programming pins.
  57:main.c        **** * To prevent the leakage of power, the programming pins can be configured as GPIO. To configure,
  58:main.c        **** * open the PSoC_4_BLE_Pressure_Sensor.cydwr file from the Workspace Explorer, go to Systems tab,
  59:main.c        **** * and set the Debug Select option to GPIO.
  60:main.c        **** ***************************************************************************************************
  61:main.c        **** * Hardware connection required:
  62:main.c        **** * Red LED - P2[6] (Hard-wired on the BLE Pioneer Kit)
ARM GAS  C:\Users\hasur\AppData\Local\Temp\cc2ES7qg.s 			page 3


  63:main.c        **** * Plug in the sensor to the outer row of the BLE Pioneer Kit Arduino compatible header J2
  64:main.c        **** * Sensor SDA - P3[0] - J2.1
  65:main.c        **** * Sensor SCL - P3[1] - J2.3
  66:main.c        **** * Sensor GND - P3[2] - J2.5
  67:main.c        **** * Sensor VIN - P3[4] - J2.7
  68:main.c        **** ***************************************************************************************************
  69:main.c        **** 
  70:main.c        **** #include <main.h>
  71:main.c        **** #include <string.h>
  72:main.c        **** 
  73:main.c        **** /*************************Variables Declaration****************************************************
  74:main.c        **** uint8 ChangePowerPinDriveMode = TRUE; //This flag is set when the GATT disconnect event occurs
  75:main.c        **** uint8 NotificationDelayCounter = NOTIFICATION_DELAY_COUNT; //Counter to handle the periodic notific
  76:main.c        **** uint8 LEDDelayCounter = LED_DELAY_COUNT; //Counter to handle the LED blinking
  77:main.c        **** long LastTemperatureData1; //Variable to store the previous temperature reading
  78:main.c        **** long LastPressureData; //Variable to store the previous pressure reading
  79:main.c        **** long LastAltitudeData; //Variable to store the previous altitude reading
  80:main.c        **** extern uint8 StartAdvertisement; //This flag is used to start advertisement
  81:main.c        **** extern uint8 DeviceConnected; //This flag is set when a Central device is connected
  82:main.c        **** extern uint8 TemperatureNotificationEnabled; //This flag is set when the Central device writes to C
  83:main.c        **** extern uint8 PressureNotificationEnabled; //This flag is set when the Central device writes to CCCD
  84:main.c        **** extern uint8 AltitudeNotificationEnabled; //This flag is set when the Central device writes to CCCD
  85:main.c        **** extern uint8 TemperatureNotificationData[0x04]; //The temperature notification value is stored in t
  86:main.c        **** extern uint8 PressureNotificationData[0x04]; //The pressure notification value is stored in this ar
  87:main.c        **** extern uint8 AltitudeNotificationData[0x04]; //The altitude notification value is stored in this ar
  88:main.c        **** extern long Temperature; //Variable to store the true temperature
  89:main.c        **** extern long Pressure; //Variable to store the true pressure
  90:main.c        **** extern long Altitude; //Variable to store the true altitude
  91:main.c        **** static CYBLE_LP_MODE_T SleepMode; //Variable to store the status of BLESS Hardware block
  92:main.c        **** static CYBLE_BLESS_STATE_T BlessState; //Variable to store the status of BLESS Hardware block
  93:main.c        **** //char BelowTemp[44] = "The temperature is below 30 degrees Celsius.";
  94:main.c        **** //char AboveTemp[44] = "The temperature is above 30 degrees Celsius.";
  95:main.c        **** int StatusofTemp;
  96:main.c        **** /**************************************************************************************************
  97:main.c        **** 
  98:main.c        **** /**************************************************************************************************
  99:main.c        **** * Function Name: main
 100:main.c        **** ***************************************************************************************************
 101:main.c        **** * Summary: This is the system entrance point. This function initializes the system and
 102:main.c        **** * continuously process sensor data and BLE events. It also handles the low power mode.
 103:main.c        **** *
 104:main.c        **** * Parameters:
 105:main.c        **** *  void
 106:main.c        **** *
 107:main.c        **** * Return:
 108:main.c        **** *  int
 109:main.c        **** *
 110:main.c        **** 
 111:main.c        **** ***************************************************************************************************
 112:main.c        **** int main()
 113:main.c        **** {
  53              		.loc 1 113 0
  54              		.cfi_startproc
  55              		@ args = 0, pretend = 0, frame = 0
  56              		@ frame_needed = 1, uses_anonymous_args = 0
  57 0000 80B5     		push	{r7, lr}
  58              		.cfi_def_cfa_offset 8
ARM GAS  C:\Users\hasur\AppData\Local\Temp\cc2ES7qg.s 			page 4


  59              		.cfi_offset 7, -8
  60              		.cfi_offset 14, -4
  61 0002 00AF     		add	r7, sp, #0
  62              		.cfi_def_cfa_register 7
 114:main.c        ****     InitializeSystem(); //Initialize the Components and enable interrupts
  63              		.loc 1 114 0
  64 0004 FFF7FEFF 		bl	InitializeSystem
  65              	.L4:
 115:main.c        ****     
 116:main.c        ****     for(;;)
 117:main.c        ****     {
 118:main.c        ****         /* Process event CallBack to handle BLE events.
 119:main.c        ****         The events generated and used in this application are inside the CustomEventHandler routine
 120:main.c        ****         CyBle_ProcessEvents();
  66              		.loc 1 120 0
  67 0008 FFF7FEFF 		bl	CyBle_ProcessEvents
 121:main.c        ****         
 122:main.c        ****         HandleStatusLED(); //Update the status LED depending upon the BLE state
  68              		.loc 1 122 0
  69 000c FFF7FEFF 		bl	HandleStatusLED
 123:main.c        ****         
 124:main.c        ****         if(DeviceConnected)
  70              		.loc 1 124 0
  71 0010 144B     		ldr	r3, .L5
  72 0012 1B78     		ldrb	r3, [r3]
  73 0014 002B     		cmp	r3, #0
  74 0016 12D0     		beq	.L2
 125:main.c        **** 		{
 126:main.c        **** 			UpdateConnectionParameters(); //Update the Connection Parameters to run the BLE communication on
  75              		.loc 1 126 0
  76 0018 FFF7FEFF 		bl	UpdateConnectionParameters
 127:main.c        ****             
 128:main.c        ****             UpdateNotificationCCCDAttribute(); //Update the CCCD writing by the Central device
  77              		.loc 1 128 0
  78 001c FFF7FEFF 		bl	UpdateNotificationCCCDAttribute
 129:main.c        ****             
 130:main.c        ****             if(--NotificationDelayCounter == ZERO)
  79              		.loc 1 130 0
  80 0020 114B     		ldr	r3, .L5+4
  81 0022 1B78     		ldrb	r3, [r3]
  82 0024 013B     		subs	r3, r3, #1
  83 0026 DAB2     		uxtb	r2, r3
  84 0028 0F4B     		ldr	r3, .L5+4
  85 002a 1A70     		strb	r2, [r3]
  86 002c 0E4B     		ldr	r3, .L5+4
  87 002e 1B78     		ldrb	r3, [r3]
  88 0030 002B     		cmp	r3, #0
  89 0032 04D1     		bne	.L2
 131:main.c        ****             {
 132:main.c        ****                 NotificationDelayCounter = NOTIFICATION_DELAY_COUNT; //Reset the notification count
  90              		.loc 1 132 0
  91 0034 0C4B     		ldr	r3, .L5+4
  92 0036 2022     		movs	r2, #32
  93 0038 1A70     		strb	r2, [r3]
 133:main.c        ****                 ReadSensorDataAndNotify(); //Read the sensor and send notifications if enabled when
  94              		.loc 1 133 0
  95 003a FFF7FEFF 		bl	ReadSensorDataAndNotify
ARM GAS  C:\Users\hasur\AppData\Local\Temp\cc2ES7qg.s 			page 5


  96              	.L2:
 134:main.c        ****             }
 135:main.c        **** 		}
 136:main.c        **** 		
 137:main.c        ****         EnterExitLowPowerMode(); //Enter low power mode
  97              		.loc 1 137 0
  98 003e FFF7FEFF 		bl	EnterExitLowPowerMode
 138:main.c        ****         
 139:main.c        ****         if(StartAdvertisement)
  99              		.loc 1 139 0
 100 0042 0A4B     		ldr	r3, .L5+8
 101 0044 1B78     		ldrb	r3, [r3]
 102 0046 002B     		cmp	r3, #0
 103 0048 DED0     		beq	.L4
 140:main.c        ****         {
 141:main.c        ****             StartAdvertisement = FALSE; //Clear the advertisement flag
 104              		.loc 1 141 0
 105 004a 084B     		ldr	r3, .L5+8
 106 004c 0022     		movs	r2, #0
 107 004e 1A70     		strb	r2, [r3]
 142:main.c        ****             
 143:main.c        ****             CyBle_GappStartAdvertisement(CYBLE_ADVERTISING_FAST); //Start advertisement and enter D
 108              		.loc 1 143 0
 109 0050 0020     		movs	r0, #0
 110 0052 FFF7FEFF 		bl	CyBle_GappStartAdvertisement
 144:main.c        ****             
 145:main.c        ****             LED_Write(ZERO); //Turn on the status LED
 111              		.loc 1 145 0
 112 0056 0020     		movs	r0, #0
 113 0058 FFF7FEFF 		bl	LED_Write
 146:main.c        ****             LED_SetDriveMode(LED_DM_STRONG); //Set the LED pin drive mode to Strong
 114              		.loc 1 146 0
 115 005c 0620     		movs	r0, #6
 116 005e FFF7FEFF 		bl	LED_SetDriveMode
 147:main.c        ****         }
 148:main.c        ****     }
 117              		.loc 1 148 0
 118 0062 D1E7     		b	.L4
 119              	.L6:
 120              		.align	2
 121              	.L5:
 122 0064 00000000 		.word	DeviceConnected
 123 0068 00000000 		.word	NotificationDelayCounter
 124 006c 00000000 		.word	StartAdvertisement
 125              		.cfi_endproc
 126              	.LFE35:
 127              		.size	main, .-main
 128              		.section	.text.InitializeSystem,"ax",%progbits
 129              		.align	2
 130              		.global	InitializeSystem
 131              		.code	16
 132              		.thumb_func
 133              		.type	InitializeSystem, %function
 134              	InitializeSystem:
 135              	.LFB36:
 149:main.c        **** }
 150:main.c        **** /**************************************************************************************************
ARM GAS  C:\Users\hasur\AppData\Local\Temp\cc2ES7qg.s 			page 6


 151:main.c        **** 
 152:main.c        **** /**************************************************************************************************
 153:main.c        **** * Function Name: InitializeSystem
 154:main.c        **** ***************************************************************************************************
 155:main.c        **** * Summary: This function starts the components and initialize system.
 156:main.c        **** *
 157:main.c        **** * Parameters:
 158:main.c        **** *  void
 159:main.c        **** *
 160:main.c        **** * Return:
 161:main.c        **** *  void
 162:main.c        **** *
 163:main.c        **** ***************************************************************************************************
 164:main.c        **** void InitializeSystem(void)
 165:main.c        **** {
 136              		.loc 1 165 0
 137              		.cfi_startproc
 138              		@ args = 0, pretend = 0, frame = 0
 139              		@ frame_needed = 1, uses_anonymous_args = 0
 140 0000 80B5     		push	{r7, lr}
 141              		.cfi_def_cfa_offset 8
 142              		.cfi_offset 7, -8
 143              		.cfi_offset 14, -4
 144 0002 00AF     		add	r7, sp, #0
 145              		.cfi_def_cfa_register 7
 166:main.c        ****     CyGlobalIntEnable; //Enable global interrupts
 146              		.loc 1 166 0
 147              		.syntax divided
 148              	@ 166 "main.c" 1
 149 0004 62B6     		CPSIE   i
 150              	@ 0 "" 2
 167:main.c        ****     
 168:main.c        ****     /* Start BLE component and register the CustomEventHandler function.
 169:main.c        ****     This function exposes the events from BLE component for application use */
 170:main.c        ****     CyBle_Start(CustomEventHandler);
 151              		.loc 1 170 0
 152              		.thumb
 153              		.syntax unified
 154 0006 0C4B     		ldr	r3, .L8
 155 0008 1800     		movs	r0, r3
 156 000a FFF7FEFF 		bl	CyBle_Start
 171:main.c        ****     
 172:main.c        ****     I2C_Start(); //Start the I2C component
 157              		.loc 1 172 0
 158 000e FFF7FEFF 		bl	I2C_Start
 173:main.c        ****     
 174:main.c        ****     Btn_Interrupt_StartEx(ButtonISR); //Start the button ISR to allow wakeup from sleep
 159              		.loc 1 174 0
 160 0012 0A4B     		ldr	r3, .L8+4
 161 0014 1800     		movs	r0, r3
 162 0016 FFF7FEFF 		bl	Btn_Interrupt_StartEx
 175:main.c        ****     
 176:main.c        ****     GND_Write(ZERO); //Turn off the GND pin    
 163              		.loc 1 176 0
 164 001a 0020     		movs	r0, #0
 165 001c FFF7FEFF 		bl	GND_Write
 177:main.c        ****     GND_SetDriveMode(GND_DM_STRONG); //Set the GND pin drive mode to Strong
ARM GAS  C:\Users\hasur\AppData\Local\Temp\cc2ES7qg.s 			page 7


 166              		.loc 1 177 0
 167 0020 0620     		movs	r0, #6
 168 0022 FFF7FEFF 		bl	GND_SetDriveMode
 178:main.c        ****     
 179:main.c        ****     VDD_Write(ONE); //Turn on the power pin    
 169              		.loc 1 179 0
 170 0026 0120     		movs	r0, #1
 171 0028 FFF7FEFF 		bl	VDD_Write
 180:main.c        ****     VDD_SetDriveMode(VDD_DM_STRONG); //Set the VDD pin drive mode to Strong
 172              		.loc 1 180 0
 173 002c 0620     		movs	r0, #6
 174 002e FFF7FEFF 		bl	VDD_SetDriveMode
 181:main.c        **** }
 175              		.loc 1 181 0
 176 0032 C046     		nop
 177 0034 BD46     		mov	sp, r7
 178              		@ sp needed
 179 0036 80BD     		pop	{r7, pc}
 180              	.L9:
 181              		.align	2
 182              	.L8:
 183 0038 00000000 		.word	CustomEventHandler
 184 003c 00000000 		.word	ButtonISR
 185              		.cfi_endproc
 186              	.LFE36:
 187              		.size	InitializeSystem, .-InitializeSystem
 188              		.section	.text.ReadSensorDataAndNotify,"ax",%progbits
 189              		.align	2
 190              		.global	ReadSensorDataAndNotify
 191              		.code	16
 192              		.thumb_func
 193              		.type	ReadSensorDataAndNotify, %function
 194              	ReadSensorDataAndNotify:
 195              	.LFB37:
 182:main.c        **** /**************************************************************************************************
 183:main.c        **** 
 184:main.c        **** /**************************************************************************************************
 185:main.c        **** * Function Name: ReadSensorDataAndNotify
 186:main.c        **** ***************************************************************************************************
 187:main.c        **** * Summary: This function checks whether any of the notifications is enabled and sends the sensor da
 188:main.c        **** * If any notification is enabled and the sensor data has changed from the previous readings, it sen
 189:main.c        **** *
 190:main.c        **** * Parameters:
 191:main.c        **** *  void
 192:main.c        **** *
 193:main.c        **** * Return:
 194:main.c        **** *  void
 195:main.c        **** *
 196:main.c        **** ***************************************************************************************************
 197:main.c        **** void ReadSensorDataAndNotify(void)
 198:main.c        **** {
 196              		.loc 1 198 0
 197              		.cfi_startproc
 198              		@ args = 0, pretend = 0, frame = 0
 199              		@ frame_needed = 1, uses_anonymous_args = 0
 200 0000 80B5     		push	{r7, lr}
 201              		.cfi_def_cfa_offset 8
ARM GAS  C:\Users\hasur\AppData\Local\Temp\cc2ES7qg.s 			page 8


 202              		.cfi_offset 7, -8
 203              		.cfi_offset 14, -4
 204 0002 00AF     		add	r7, sp, #0
 205              		.cfi_def_cfa_register 7
 199:main.c        ****     /* Start sensor data processing if any notification is enabled */
 200:main.c        ****     if((TemperatureNotificationEnabled || PressureNotificationEnabled || AltitudeNotificationEnable
 206              		.loc 1 200 0
 207 0004 424B     		ldr	r3, .L17
 208 0006 1B78     		ldrb	r3, [r3]
 209 0008 002B     		cmp	r3, #0
 210 000a 07D1     		bne	.L11
 211              		.loc 1 200 0 is_stmt 0 discriminator 1
 212 000c 414B     		ldr	r3, .L17+4
 213 000e 1B78     		ldrb	r3, [r3]
 214 0010 002B     		cmp	r3, #0
 215 0012 03D1     		bne	.L11
 216              		.loc 1 200 0 discriminator 2
 217 0014 404B     		ldr	r3, .L17+8
 218 0016 1B78     		ldrb	r3, [r3]
 219 0018 002B     		cmp	r3, #0
 220 001a 01D0     		beq	.L12
 221              	.L11:
 201:main.c        ****     {
 202:main.c        ****         ReadAndCalculateSensorData(); //Read and calculate the sensor data
 222              		.loc 1 202 0 is_stmt 1
 223 001c FFF7FEFF 		bl	ReadAndCalculateSensorData
 224              	.L12:
 203:main.c        ****     }
 204:main.c        ****     
 205:main.c        ****     /* Check whether the temperature notification is enabled and the data has changed from the prev
 206:main.c        ****     if(TemperatureNotificationEnabled && (Temperature != LastTemperatureData1))
 225              		.loc 1 206 0
 226 0020 3B4B     		ldr	r3, .L17
 227 0022 1B78     		ldrb	r3, [r3]
 228 0024 002B     		cmp	r3, #0
 229 0026 22D0     		beq	.L13
 230              		.loc 1 206 0 is_stmt 0 discriminator 1
 231 0028 3C4B     		ldr	r3, .L17+12
 232 002a 1A68     		ldr	r2, [r3]
 233 002c 3C4B     		ldr	r3, .L17+16
 234 002e 1B68     		ldr	r3, [r3]
 235 0030 9A42     		cmp	r2, r3
 236 0032 1CD0     		beq	.L13
 207:main.c        ****     {
 208:main.c        ****         /* Convert the temperature data into notification type */
 209:main.c        ****         TemperatureNotificationData[0x00] = Temperature;
 237              		.loc 1 209 0 is_stmt 1
 238 0034 394B     		ldr	r3, .L17+12
 239 0036 1B68     		ldr	r3, [r3]
 240 0038 DAB2     		uxtb	r2, r3
 241 003a 3A4B     		ldr	r3, .L17+20
 242 003c 1A70     		strb	r2, [r3]
 210:main.c        ****         TemperatureNotificationData[0x01] = Temperature >> 0x08;
 243              		.loc 1 210 0
 244 003e 374B     		ldr	r3, .L17+12
 245 0040 1B68     		ldr	r3, [r3]
 246 0042 1B12     		asrs	r3, r3, #8
ARM GAS  C:\Users\hasur\AppData\Local\Temp\cc2ES7qg.s 			page 9


 247 0044 DAB2     		uxtb	r2, r3
 248 0046 374B     		ldr	r3, .L17+20
 249 0048 5A70     		strb	r2, [r3, #1]
 211:main.c        ****         TemperatureNotificationData[0x02] = Temperature >> 0x10;
 250              		.loc 1 211 0
 251 004a 344B     		ldr	r3, .L17+12
 252 004c 1B68     		ldr	r3, [r3]
 253 004e 1B14     		asrs	r3, r3, #16
 254 0050 DAB2     		uxtb	r2, r3
 255 0052 344B     		ldr	r3, .L17+20
 256 0054 9A70     		strb	r2, [r3, #2]
 212:main.c        ****         TemperatureNotificationData[0x03] = Temperature >> 0x18;
 257              		.loc 1 212 0
 258 0056 314B     		ldr	r3, .L17+12
 259 0058 1B68     		ldr	r3, [r3]
 260 005a 1B16     		asrs	r3, r3, #24
 261 005c DAB2     		uxtb	r2, r3
 262 005e 314B     		ldr	r3, .L17+20
 263 0060 DA70     		strb	r2, [r3, #3]
 213:main.c        ****         
 214:main.c        ****         LastTemperatureData1 = Temperature; //Store the current temperature data for reference
 264              		.loc 1 214 0
 265 0062 2E4B     		ldr	r3, .L17+12
 266 0064 1A68     		ldr	r2, [r3]
 267 0066 2E4B     		ldr	r3, .L17+16
 268 0068 1A60     		str	r2, [r3]
 215:main.c        ****         
 216:main.c        ****         SendTemperatureOverNotification(); //Send temperature data as notification
 269              		.loc 1 216 0
 270 006a FFF7FEFF 		bl	SendTemperatureOverNotification
 271              	.L13:
 217:main.c        ****     }
 218:main.c        ****     
 219:main.c        ****     /* Check whether the pressure notification is enabled and the data has changed from the previou
 220:main.c        ****     if(PressureNotificationEnabled && (Pressure != LastPressureData))
 272              		.loc 1 220 0
 273 006e 294B     		ldr	r3, .L17+4
 274 0070 1B78     		ldrb	r3, [r3]
 275 0072 002B     		cmp	r3, #0
 276 0074 22D0     		beq	.L14
 277              		.loc 1 220 0 is_stmt 0 discriminator 1
 278 0076 2C4B     		ldr	r3, .L17+24
 279 0078 1A68     		ldr	r2, [r3]
 280 007a 2C4B     		ldr	r3, .L17+28
 281 007c 1B68     		ldr	r3, [r3]
 282 007e 9A42     		cmp	r2, r3
 283 0080 1CD0     		beq	.L14
 221:main.c        ****     {
 222:main.c        ****         /* Convert the pressure data into notification type */
 223:main.c        ****         PressureNotificationData[0x00] = Pressure;
 284              		.loc 1 223 0 is_stmt 1
 285 0082 294B     		ldr	r3, .L17+24
 286 0084 1B68     		ldr	r3, [r3]
 287 0086 DAB2     		uxtb	r2, r3
 288 0088 294B     		ldr	r3, .L17+32
 289 008a 1A70     		strb	r2, [r3]
 224:main.c        ****         PressureNotificationData[0x01] = Pressure >> 0x08;
ARM GAS  C:\Users\hasur\AppData\Local\Temp\cc2ES7qg.s 			page 10


 290              		.loc 1 224 0
 291 008c 264B     		ldr	r3, .L17+24
 292 008e 1B68     		ldr	r3, [r3]
 293 0090 1B12     		asrs	r3, r3, #8
 294 0092 DAB2     		uxtb	r2, r3
 295 0094 264B     		ldr	r3, .L17+32
 296 0096 5A70     		strb	r2, [r3, #1]
 225:main.c        ****         PressureNotificationData[0x02] = Pressure >> 0x10;
 297              		.loc 1 225 0
 298 0098 234B     		ldr	r3, .L17+24
 299 009a 1B68     		ldr	r3, [r3]
 300 009c 1B14     		asrs	r3, r3, #16
 301 009e DAB2     		uxtb	r2, r3
 302 00a0 234B     		ldr	r3, .L17+32
 303 00a2 9A70     		strb	r2, [r3, #2]
 226:main.c        ****         PressureNotificationData[0x03] = Pressure >> 0x18;
 304              		.loc 1 226 0
 305 00a4 204B     		ldr	r3, .L17+24
 306 00a6 1B68     		ldr	r3, [r3]
 307 00a8 1B16     		asrs	r3, r3, #24
 308 00aa DAB2     		uxtb	r2, r3
 309 00ac 204B     		ldr	r3, .L17+32
 310 00ae DA70     		strb	r2, [r3, #3]
 227:main.c        ****         
 228:main.c        ****         LastPressureData = Pressure; //Store the current pressure data for reference
 311              		.loc 1 228 0
 312 00b0 1D4B     		ldr	r3, .L17+24
 313 00b2 1A68     		ldr	r2, [r3]
 314 00b4 1D4B     		ldr	r3, .L17+28
 315 00b6 1A60     		str	r2, [r3]
 229:main.c        ****         
 230:main.c        ****         SendPressureOverNotification(); //Send pressure data as notification
 316              		.loc 1 230 0
 317 00b8 FFF7FEFF 		bl	SendPressureOverNotification
 318              	.L14:
 231:main.c        ****     }
 232:main.c        ****     
 233:main.c        ****     /* Check whether the altitude notification is enabled and the data has changed from the previou
 234:main.c        ****     if(AltitudeNotificationEnabled && (Altitude != LastAltitudeData))
 319              		.loc 1 234 0
 320 00bc 164B     		ldr	r3, .L17+8
 321 00be 1B78     		ldrb	r3, [r3]
 322 00c0 002B     		cmp	r3, #0
 323 00c2 22D0     		beq	.L16
 324              		.loc 1 234 0 is_stmt 0 discriminator 1
 325 00c4 1B4B     		ldr	r3, .L17+36
 326 00c6 1A68     		ldr	r2, [r3]
 327 00c8 1B4B     		ldr	r3, .L17+40
 328 00ca 1B68     		ldr	r3, [r3]
 329 00cc 9A42     		cmp	r2, r3
 330 00ce 1CD0     		beq	.L16
 235:main.c        ****     {
 236:main.c        ****         /* Convert the altitude data into notification type */
 237:main.c        ****         AltitudeNotificationData[0x00] = Altitude;
 331              		.loc 1 237 0 is_stmt 1
 332 00d0 184B     		ldr	r3, .L17+36
 333 00d2 1B68     		ldr	r3, [r3]
ARM GAS  C:\Users\hasur\AppData\Local\Temp\cc2ES7qg.s 			page 11


 334 00d4 DAB2     		uxtb	r2, r3
 335 00d6 194B     		ldr	r3, .L17+44
 336 00d8 1A70     		strb	r2, [r3]
 238:main.c        ****         AltitudeNotificationData[0x01] = Altitude >> 0x08;
 337              		.loc 1 238 0
 338 00da 164B     		ldr	r3, .L17+36
 339 00dc 1B68     		ldr	r3, [r3]
 340 00de 1B12     		asrs	r3, r3, #8
 341 00e0 DAB2     		uxtb	r2, r3
 342 00e2 164B     		ldr	r3, .L17+44
 343 00e4 5A70     		strb	r2, [r3, #1]
 239:main.c        ****         AltitudeNotificationData[0x02] = Altitude >> 0x10;
 344              		.loc 1 239 0
 345 00e6 134B     		ldr	r3, .L17+36
 346 00e8 1B68     		ldr	r3, [r3]
 347 00ea 1B14     		asrs	r3, r3, #16
 348 00ec DAB2     		uxtb	r2, r3
 349 00ee 134B     		ldr	r3, .L17+44
 350 00f0 9A70     		strb	r2, [r3, #2]
 240:main.c        ****         AltitudeNotificationData[0x03] = Altitude >> 0x18;
 351              		.loc 1 240 0
 352 00f2 104B     		ldr	r3, .L17+36
 353 00f4 1B68     		ldr	r3, [r3]
 354 00f6 1B16     		asrs	r3, r3, #24
 355 00f8 DAB2     		uxtb	r2, r3
 356 00fa 104B     		ldr	r3, .L17+44
 357 00fc DA70     		strb	r2, [r3, #3]
 241:main.c        ****         
 242:main.c        ****         LastAltitudeData = Altitude; //Store the current altitude data for reference
 358              		.loc 1 242 0
 359 00fe 0D4B     		ldr	r3, .L17+36
 360 0100 1A68     		ldr	r2, [r3]
 361 0102 0D4B     		ldr	r3, .L17+40
 362 0104 1A60     		str	r2, [r3]
 243:main.c        ****         
 244:main.c        ****         SendAltitudeOverNotification(); //Send altitude data as notification
 363              		.loc 1 244 0
 364 0106 FFF7FEFF 		bl	SendAltitudeOverNotification
 365              	.L16:
 245:main.c        ****     }
 246:main.c        **** }
 366              		.loc 1 246 0
 367 010a C046     		nop
 368 010c BD46     		mov	sp, r7
 369              		@ sp needed
 370 010e 80BD     		pop	{r7, pc}
 371              	.L18:
 372              		.align	2
 373              	.L17:
 374 0110 00000000 		.word	TemperatureNotificationEnabled
 375 0114 00000000 		.word	PressureNotificationEnabled
 376 0118 00000000 		.word	AltitudeNotificationEnabled
 377 011c 00000000 		.word	Temperature
 378 0120 00000000 		.word	LastTemperatureData1
 379 0124 00000000 		.word	TemperatureNotificationData
 380 0128 00000000 		.word	Pressure
 381 012c 00000000 		.word	LastPressureData
ARM GAS  C:\Users\hasur\AppData\Local\Temp\cc2ES7qg.s 			page 12


 382 0130 00000000 		.word	PressureNotificationData
 383 0134 00000000 		.word	Altitude
 384 0138 00000000 		.word	LastAltitudeData
 385 013c 00000000 		.word	AltitudeNotificationData
 386              		.cfi_endproc
 387              	.LFE37:
 388              		.size	ReadSensorDataAndNotify, .-ReadSensorDataAndNotify
 389              		.section	.text.HandleStatusLED,"ax",%progbits
 390              		.align	2
 391              		.global	HandleStatusLED
 392              		.code	16
 393              		.thumb_func
 394              		.type	HandleStatusLED, %function
 395              	HandleStatusLED:
 396              	.LFB38:
 247:main.c        **** /**************************************************************************************************
 248:main.c        **** 
 249:main.c        **** /**************************************************************************************************
 250:main.c        **** * Function Name: HandleStatusLED
 251:main.c        **** ***************************************************************************************************
 252:main.c        **** * Summary: This function controls the status LED depending upon the BLE state.
 253:main.c        **** *
 254:main.c        **** * Parameters:
 255:main.c        **** *  void
 256:main.c        **** *
 257:main.c        **** * Return:
 258:main.c        **** *  void
 259:main.c        **** *
 260:main.c        **** ***************************************************************************************************
 261:main.c        **** void HandleStatusLED(void)
 262:main.c        **** {
 397              		.loc 1 262 0
 398              		.cfi_startproc
 399              		@ args = 0, pretend = 0, frame = 0
 400              		@ frame_needed = 1, uses_anonymous_args = 0
 401 0000 80B5     		push	{r7, lr}
 402              		.cfi_def_cfa_offset 8
 403              		.cfi_offset 7, -8
 404              		.cfi_offset 14, -4
 405 0002 00AF     		add	r7, sp, #0
 406              		.cfi_def_cfa_register 7
 263:main.c        ****    
 264:main.c        ****     
 265:main.c        ****     /* Check whether the device is advertising and blink the LED */
 266:main.c        ****     if(CyBle_GetState() == CYBLE_STATE_ADVERTISING)
 407              		.loc 1 266 0
 408 0004 184B     		ldr	r3, .L25
 409 0006 1B78     		ldrb	r3, [r3]
 410 0008 032B     		cmp	r3, #3
 411 000a 16D1     		bne	.L20
 267:main.c        ****     {
 268:main.c        ****         if(--LEDDelayCounter == ZERO)
 412              		.loc 1 268 0
 413 000c 174B     		ldr	r3, .L25+4
 414 000e 1B78     		ldrb	r3, [r3]
 415 0010 013B     		subs	r3, r3, #1
 416 0012 DAB2     		uxtb	r2, r3
ARM GAS  C:\Users\hasur\AppData\Local\Temp\cc2ES7qg.s 			page 13


 417 0014 154B     		ldr	r3, .L25+4
 418 0016 1A70     		strb	r2, [r3]
 419 0018 144B     		ldr	r3, .L25+4
 420 001a 1B78     		ldrb	r3, [r3]
 421 001c 002B     		cmp	r3, #0
 422 001e 1FD1     		bne	.L24
 269:main.c        ****         {
 270:main.c        ****             LEDDelayCounter = LED_DELAY_COUNT; //Reset the LED state counter
 423              		.loc 1 270 0
 424 0020 124B     		ldr	r3, .L25+4
 425 0022 3222     		movs	r2, #50
 426 0024 1A70     		strb	r2, [r3]
 271:main.c        ****             LED_Write(!LED_Read()); //Toggle the status LED when the counter is reset
 427              		.loc 1 271 0
 428 0026 FFF7FEFF 		bl	LED_Read
 429 002a 0300     		movs	r3, r0
 430 002c 5A42     		rsbs	r2, r3, #0
 431 002e 5341     		adcs	r3, r3, r2
 432 0030 DBB2     		uxtb	r3, r3
 433 0032 1800     		movs	r0, r3
 434 0034 FFF7FEFF 		bl	LED_Write
 272:main.c        ****         }
 273:main.c        ****     }    
 274:main.c        ****     else
 275:main.c        ****     {
 276:main.c        ****         if (LastTemperatureData1 > 0x12C){
 277:main.c        ****             LED_Write(ZERO);
 278:main.c        ****             StatusofTemp = 1;
 279:main.c        ****         }
 280:main.c        ****         else 
 281:main.c        ****         {LED_Write(ONE);
 282:main.c        ****         StatusofTemp = 0;
 283:main.c        ****     }
 284:main.c        **** }
 285:main.c        **** }
 435              		.loc 1 285 0
 436 0038 12E0     		b	.L24
 437              	.L20:
 276:main.c        ****             LED_Write(ZERO);
 438              		.loc 1 276 0
 439 003a 0D4B     		ldr	r3, .L25+8
 440 003c 1A68     		ldr	r2, [r3]
 441 003e 9623     		movs	r3, #150
 442 0040 5B00     		lsls	r3, r3, #1
 443 0042 9A42     		cmp	r2, r3
 444 0044 06DD     		ble	.L23
 277:main.c        ****             StatusofTemp = 1;
 445              		.loc 1 277 0
 446 0046 0020     		movs	r0, #0
 447 0048 FFF7FEFF 		bl	LED_Write
 278:main.c        ****         }
 448              		.loc 1 278 0
 449 004c 094B     		ldr	r3, .L25+12
 450 004e 0122     		movs	r2, #1
 451 0050 1A60     		str	r2, [r3]
 452              		.loc 1 285 0
 453 0052 05E0     		b	.L24
ARM GAS  C:\Users\hasur\AppData\Local\Temp\cc2ES7qg.s 			page 14


 454              	.L23:
 281:main.c        ****         StatusofTemp = 0;
 455              		.loc 1 281 0
 456 0054 0120     		movs	r0, #1
 457 0056 FFF7FEFF 		bl	LED_Write
 282:main.c        ****     }
 458              		.loc 1 282 0
 459 005a 064B     		ldr	r3, .L25+12
 460 005c 0022     		movs	r2, #0
 461 005e 1A60     		str	r2, [r3]
 462              	.L24:
 463              		.loc 1 285 0
 464 0060 C046     		nop
 465 0062 BD46     		mov	sp, r7
 466              		@ sp needed
 467 0064 80BD     		pop	{r7, pc}
 468              	.L26:
 469 0066 C046     		.align	2
 470              	.L25:
 471 0068 00000000 		.word	cyBle_state
 472 006c 00000000 		.word	LEDDelayCounter
 473 0070 00000000 		.word	LastTemperatureData1
 474 0074 00000000 		.word	StatusofTemp
 475              		.cfi_endproc
 476              	.LFE38:
 477              		.size	HandleStatusLED, .-HandleStatusLED
 478              		.section	.text.EnterExitLowPowerMode,"ax",%progbits
 479              		.align	2
 480              		.global	EnterExitLowPowerMode
 481              		.code	16
 482              		.thumb_func
 483              		.type	EnterExitLowPowerMode, %function
 484              	EnterExitLowPowerMode:
 485              	.LFB39:
 286:main.c        **** /**************************************************************************************************
 287:main.c        **** 
 288:main.c        **** /**************************************************************************************************
 289:main.c        **** * Function Name: EnterExitLowPowerMode
 290:main.c        **** ***************************************************************************************************
 291:main.c        **** * Summary: This function puts the BLESS and CPU to deep sleep mode. 
 292:main.c        **** * System will resume from here when it wakes up from user button press.
 293:main.c        **** *
 294:main.c        **** * Parameters:
 295:main.c        **** *  void
 296:main.c        **** *
 297:main.c        **** * Return:
 298:main.c        **** *  void
 299:main.c        **** *
 300:main.c        **** ***************************************************************************************************
 301:main.c        **** void EnterExitLowPowerMode(void)
 302:main.c        **** {
 486              		.loc 1 302 0
 487              		.cfi_startproc
 488              		@ args = 0, pretend = 0, frame = 0
 489              		@ frame_needed = 1, uses_anonymous_args = 0
 490 0000 80B5     		push	{r7, lr}
 491              		.cfi_def_cfa_offset 8
ARM GAS  C:\Users\hasur\AppData\Local\Temp\cc2ES7qg.s 			page 15


 492              		.cfi_offset 7, -8
 493              		.cfi_offset 14, -4
 494 0002 00AF     		add	r7, sp, #0
 495              		.cfi_def_cfa_register 7
 303:main.c        **** 	I2C_Sleep(); //Put I2C to sleep
 496              		.loc 1 303 0
 497 0004 FFF7FEFF 		bl	I2C_Sleep
 304:main.c        ****     
 305:main.c        ****     /* Change the pin drive mode to save power consumption */
 306:main.c        ****     if(ChangePowerPinDriveMode)
 498              		.loc 1 306 0
 499 0008 1E4B     		ldr	r3, .L34
 500 000a 1B78     		ldrb	r3, [r3]
 501 000c 002B     		cmp	r3, #0
 502 000e 05D0     		beq	.L28
 307:main.c        ****     {
 308:main.c        ****         GND_SetDriveMode(GND_DM_ALG_HIZ); //Set the GND pin drive mode to Hi-Z
 503              		.loc 1 308 0
 504 0010 0020     		movs	r0, #0
 505 0012 FFF7FEFF 		bl	GND_SetDriveMode
 309:main.c        ****         VDD_SetDriveMode(VDD_DM_ALG_HIZ); //Set the VDD pin drive mode to Hi-Z
 506              		.loc 1 309 0
 507 0016 0020     		movs	r0, #0
 508 0018 FFF7FEFF 		bl	VDD_SetDriveMode
 509              	.L28:
 310:main.c        ****     }
 311:main.c        **** 	
 312:main.c        **** 	SleepMode = CyBle_EnterLPM(CYBLE_BLESS_DEEPSLEEP); //Put the BLESS to sleep
 510              		.loc 1 312 0
 511 001c 0320     		movs	r0, #3
 512 001e FFF7FEFF 		bl	CyBle_EnterLPM
 513 0022 0300     		movs	r3, r0
 514 0024 1A00     		movs	r2, r3
 515 0026 184B     		ldr	r3, .L34+4
 516 0028 1A70     		strb	r2, [r3]
 313:main.c        ****     
 314:main.c        ****     CyGlobalIntDisable; //Disable global interrupts
 517              		.loc 1 314 0
 518              		.syntax divided
 519              	@ 314 "main.c" 1
 520 002a 72B6     		CPSID   i
 521              	@ 0 "" 2
 315:main.c        ****     
 316:main.c        ****     BlessState = CyBle_GetBleSsState(); //Check the Status of BLESS
 522              		.loc 1 316 0
 523              		.thumb
 524              		.syntax unified
 525 002c FFF7FEFF 		bl	CyBle_GetBleSsState
 526 0030 0300     		movs	r3, r0
 527 0032 1A00     		movs	r2, r3
 528 0034 154B     		ldr	r3, .L34+8
 529 0036 1A70     		strb	r2, [r3]
 317:main.c        ****     
 318:main.c        ****     if(SleepMode == CYBLE_BLESS_DEEPSLEEP)
 530              		.loc 1 318 0
 531 0038 134B     		ldr	r3, .L34+4
 532 003a 1B78     		ldrb	r3, [r3]
ARM GAS  C:\Users\hasur\AppData\Local\Temp\cc2ES7qg.s 			page 16


 533 003c 032B     		cmp	r3, #3
 534 003e 0AD1     		bne	.L29
 319:main.c        ****     {
 320:main.c        ****         if(BlessState == CYBLE_BLESS_STATE_ECO_ON || BlessState == CYBLE_BLESS_STATE_DEEPSLEEP)
 535              		.loc 1 320 0
 536 0040 124B     		ldr	r3, .L34+8
 537 0042 1B78     		ldrb	r3, [r3]
 538 0044 042B     		cmp	r3, #4
 539 0046 03D0     		beq	.L30
 540              		.loc 1 320 0 is_stmt 0 discriminator 1
 541 0048 104B     		ldr	r3, .L34+8
 542 004a 1B78     		ldrb	r3, [r3]
 543 004c 062B     		cmp	r3, #6
 544 004e 08D1     		bne	.L32
 545              	.L30:
 321:main.c        ****         {
 322:main.c        ****             CySysPmDeepSleep(); //Put the CPU to Deep Sleep mode when the ECO has started
 546              		.loc 1 322 0 is_stmt 1
 547 0050 FFF7FEFF 		bl	CySysPmDeepSleep
 548 0054 05E0     		b	.L32
 549              	.L29:
 323:main.c        ****         }
 324:main.c        ****     }
 325:main.c        ****     else
 326:main.c        ****     {    
 327:main.c        ****         if(BlessState != CYBLE_BLESS_STATE_EVENT_CLOSE)
 550              		.loc 1 327 0
 551 0056 0D4B     		ldr	r3, .L34+8
 552 0058 1B78     		ldrb	r3, [r3]
 553 005a 022B     		cmp	r3, #2
 554 005c 01D0     		beq	.L32
 328:main.c        ****         {
 329:main.c        ****             CySysPmSleep(); //Put the CPU to Sleep mode if all the BLE events are not closed
 555              		.loc 1 329 0
 556 005e FFF7FEFF 		bl	CySysPmSleep
 557              	.L32:
 330:main.c        ****         }
 331:main.c        ****     }
 332:main.c        ****     
 333:main.c        ****     CyGlobalIntEnable; //Enable global interrupts
 558              		.loc 1 333 0
 559              		.syntax divided
 560              	@ 333 "main.c" 1
 561 0062 62B6     		CPSIE   i
 562              	@ 0 "" 2
 334:main.c        ****     
 335:main.c        ****     /* Revert the pin drive mode back to the original set in the initialization */
 336:main.c        ****     if(ChangePowerPinDriveMode)
 563              		.loc 1 336 0
 564              		.thumb
 565              		.syntax unified
 566 0064 074B     		ldr	r3, .L34
 567 0066 1B78     		ldrb	r3, [r3]
 568 0068 002B     		cmp	r3, #0
 569 006a 05D0     		beq	.L33
 337:main.c        ****     {
 338:main.c        ****         GND_SetDriveMode(GND_DM_STRONG); //Set the GND pin drive mode to Strong
ARM GAS  C:\Users\hasur\AppData\Local\Temp\cc2ES7qg.s 			page 17


 570              		.loc 1 338 0
 571 006c 0620     		movs	r0, #6
 572 006e FFF7FEFF 		bl	GND_SetDriveMode
 339:main.c        ****         VDD_SetDriveMode(VDD_DM_STRONG); //Set the VDD pin drive mode to Strong
 573              		.loc 1 339 0
 574 0072 0620     		movs	r0, #6
 575 0074 FFF7FEFF 		bl	VDD_SetDriveMode
 576              	.L33:
 340:main.c        ****     }
 341:main.c        ****     
 342:main.c        ****     I2C_Wakeup(); //Wakeup the I2C
 577              		.loc 1 342 0
 578 0078 FFF7FEFF 		bl	I2C_Wakeup
 343:main.c        **** }
 579              		.loc 1 343 0
 580 007c C046     		nop
 581 007e BD46     		mov	sp, r7
 582              		@ sp needed
 583 0080 80BD     		pop	{r7, pc}
 584              	.L35:
 585 0082 C046     		.align	2
 586              	.L34:
 587 0084 00000000 		.word	ChangePowerPinDriveMode
 588 0088 00000000 		.word	SleepMode
 589 008c 01000000 		.word	BlessState
 590              		.cfi_endproc
 591              	.LFE39:
 592              		.size	EnterExitLowPowerMode, .-EnterExitLowPowerMode
 593              		.section	.text.ButtonISR,"ax",%progbits
 594              		.align	2
 595              		.global	ButtonISR
 596              		.code	16
 597              		.thumb_func
 598              		.type	ButtonISR, %function
 599              	ButtonISR:
 600              	.LFB40:
 344:main.c        **** /**************************************************************************************************
 345:main.c        **** 
 346:main.c        **** /**************************************************************************************************
 347:main.c        **** * Function Name: CY_ISR
 348:main.c        **** ***************************************************************************************************
 349:main.c        **** * Summary: ISR routine for button interrupt. The system enters here after the CPU wakeup.
 350:main.c        **** * It also Clears pending interrupt.
 351:main.c        **** *
 352:main.c        **** * Parameters:
 353:main.c        **** *  ButtonISR - Address of the ISR to set in the interrupt vector table
 354:main.c        **** *
 355:main.c        **** * Return:
 356:main.c        **** *  void
 357:main.c        **** *
 358:main.c        **** ***************************************************************************************************
 359:main.c        **** CY_ISR(ButtonISR)
 360:main.c        **** {
 601              		.loc 1 360 0
 602              		.cfi_startproc
 603              		@ args = 0, pretend = 0, frame = 0
 604              		@ frame_needed = 1, uses_anonymous_args = 0
ARM GAS  C:\Users\hasur\AppData\Local\Temp\cc2ES7qg.s 			page 18


 605 0000 80B5     		push	{r7, lr}
 606              		.cfi_def_cfa_offset 8
 607              		.cfi_offset 7, -8
 608              		.cfi_offset 14, -4
 609 0002 00AF     		add	r7, sp, #0
 610              		.cfi_def_cfa_register 7
 361:main.c        ****     /* Clear the pending interrupts */
 362:main.c        ****     Btn_Interrupt_ClearPending();    
 611              		.loc 1 362 0
 612 0004 FFF7FEFF 		bl	Btn_Interrupt_ClearPending
 363:main.c        ****     Button_ClearInterrupt();
 613              		.loc 1 363 0
 614 0008 FFF7FEFF 		bl	Button_ClearInterrupt
 364:main.c        **** }
 615              		.loc 1 364 0
 616 000c C046     		nop
 617 000e BD46     		mov	sp, r7
 618              		@ sp needed
 619 0010 80BD     		pop	{r7, pc}
 620              		.cfi_endproc
 621              	.LFE40:
 622              		.size	ButtonISR, .-ButtonISR
 623 0012 C046     		.text
 624              	.Letext0:
 625              		.file 2 "Generated_Source\\PSoC4/BLE_Stack.h"
 626              		.file 3 "Generated_Source\\PSoC4/cytypes.h"
 627              		.file 4 "Generated_Source\\PSoC4/BLE_eventHandler.h"